Component: ARM Compiler 5.06 update 4 (build 422) Tool: armlink [4d35d2]

==============================================================================

Section Cross References

    system_stm32f4xx.o(i.SystemCoreClockUpdate) refers to system_stm32f4xx.o(.data) for .data
    system_stm32f4xx.o(i.SystemInit) refers to system_stm32f4xx.o(i.SetSysClock) for SetSysClock
    startup_stm32f40_41xxx.o(STACK) refers (Special) to heapauxi.o(.text) for __use_two_region_memory
    startup_stm32f40_41xxx.o(HEAP) refers (Special) to heapauxi.o(.text) for __use_two_region_memory
    startup_stm32f40_41xxx.o(RESET) refers (Special) to heapauxi.o(.text) for __use_two_region_memory
    startup_stm32f40_41xxx.o(RESET) refers to startup_stm32f40_41xxx.o(STACK) for __initial_sp
    startup_stm32f40_41xxx.o(RESET) refers to startup_stm32f40_41xxx.o(.text) for Reset_Handler
    startup_stm32f40_41xxx.o(RESET) refers to irq_cm4f.o(.text) for SVC_Handler
    startup_stm32f40_41xxx.o(RESET) refers to bluetooth.o(i.USART2_IRQHandler) for USART2_IRQHandler
    startup_stm32f40_41xxx.o(RESET) refers to mainuart.o(i.USART3_IRQHandler) for USART3_IRQHandler
    startup_stm32f40_41xxx.o(RESET) refers to loguart.o(i.UART5_IRQHandler) for UART5_IRQHandler
    startup_stm32f40_41xxx.o(.text) refers (Special) to heapauxi.o(.text) for __use_two_region_memory
    startup_stm32f40_41xxx.o(.text) refers to system_stm32f4xx.o(i.SystemInit) for SystemInit
    startup_stm32f40_41xxx.o(.text) refers to __main.o(!!!main) for __main
    startup_stm32f40_41xxx.o(.text) refers to startup_stm32f40_41xxx.o(HEAP) for Heap_Mem
    startup_stm32f40_41xxx.o(.text) refers to startup_stm32f40_41xxx.o(STACK) for Stack_Mem
    main.o(i.main) refers to rtx_kernel.o(.text.osKernelInitialize) for osKernelInitialize
    main.o(i.main) refers to cxa_guard_acquire.o(i.__cxa_guard_acquire) for __cxa_guard_acquire
    main.o(i.main) refers to boottask.o(i._ZN8BootTaskC1Ev) for BootTask::BootTask()
    main.o(i.main) refers to task.o(i._ZN4Task5startEv) for Task::start()
    main.o(i.main) refers to rtx_kernel.o(.text.osKernelStart) for osKernelStart
    main.o(i.main) refers to main.o(.data__ZZN8BootTask8instanceEvE4task) for guard variable for BootTask::instance()::task
    main.o(i.main) refers to main.o(.bss__ZZN8BootTask8instanceEvE4task) for BootTask::instance()::task
    main.o(.ARM.exidx) refers to main.o(i.main) for i.main
    bluetoothevent.o(i._ZN14BluetoothEvent14onStatusChangeEhhh) refers to bluetoothevent.o(i._ZN8Protocol7append1Eh) for Protocol::append1(unsigned char)
    bluetoothevent.o(i._ZN14BluetoothEvent14onStatusChangeEhhh) refers to protocol.o(i._ZN8Protocol5buildEPh) for Protocol::build(unsigned char*)
    bluetoothevent.o(i._ZN14BluetoothEvent14onStatusChangeEhhh) refers to bluetoothevent.o(i._ZN9Bluetooth8instanceEv) for Bluetooth::instance()
    bluetoothevent.o(i._ZN14BluetoothEvent15onCheckRobotArmEv) refers to cxa_guard_acquire.o(i.__cxa_guard_acquire) for __cxa_guard_acquire
    bluetoothevent.o(i._ZN14BluetoothEvent15onCheckRobotArmEv) refers to robotarm1.o(i._ZN9RobotArm1C1Ev) for RobotArm1::RobotArm1()
    bluetoothevent.o(i._ZN14BluetoothEvent15onCheckRobotArmEv) refers to bluetoothevent.o(i._ZN11FlashMemory8instanceEv) for FlashMemory::instance()
    bluetoothevent.o(i._ZN14BluetoothEvent15onCheckRobotArmEv) refers to robotarm2.o(i._ZN9RobotArm2C1Ev) for RobotArm2::RobotArm2()
    bluetoothevent.o(i._ZN14BluetoothEvent15onCheckRobotArmEv) refers to flashmemory.o(i._ZN11FlashMemory12vSectorEarseEj) for FlashMemory::vSectorEarse(unsigned)
    bluetoothevent.o(i._ZN14BluetoothEvent15onCheckRobotArmEv) refers to flashmemory.o(i._ZN11FlashMemory10vWriteDataEjPKhj) for FlashMemory::vWriteData(unsigned, const unsigned char*, unsigned)
    bluetoothevent.o(i._ZN14BluetoothEvent15onCheckRobotArmEv) refers to bluetoothevent.o(.data__ZZN9RobotArm18instanceEvE1r) for guard variable for RobotArm1::instance()::r
    bluetoothevent.o(i._ZN14BluetoothEvent15onCheckRobotArmEv) refers to bluetoothevent.o(.bss__ZZN9RobotArm18instanceEvE1r) for RobotArm1::instance()::r
    bluetoothevent.o(i._ZN14BluetoothEvent15onCheckRobotArmEv) refers to bluetoothevent.o(.data__ZZN9RobotArm28instanceEvE8instance) for guard variable for RobotArm2::instance()::instance
    bluetoothevent.o(i._ZN14BluetoothEvent15onCheckRobotArmEv) refers to bluetoothevent.o(.bss__ZZN9RobotArm28instanceEvE8instance) for RobotArm2::instance()::instance
    bluetoothevent.o(i._ZN14BluetoothEvent7disposeEv) refers to event.o(i._ZNK5Event9isCorrectEv) for Event::isCorrect() const
    bluetoothevent.o(i._ZN14BluetoothEvent7disposeEv) refers to cxa_guard_acquire.o(i.__cxa_guard_acquire) for __cxa_guard_acquire
    bluetoothevent.o(i._ZN14BluetoothEvent7disposeEv) refers to delivertask.o(i._ZN11DeliverTaskC1Ev) for DeliverTask::DeliverTask()
    bluetoothevent.o(i._ZN14BluetoothEvent7disposeEv) refers to rtx_msgqueue.o(.text.osMessageQueuePut) for osMessageQueuePut
    bluetoothevent.o(i._ZN14BluetoothEvent7disposeEv) refers to bluetoothevent.o(.data__ZZN11DeliverTask8instanceEvE8INSTANCE) for guard variable for DeliverTask::instance()::INSTANCE
    bluetoothevent.o(i._ZN14BluetoothEvent7disposeEv) refers to bluetoothevent.o(.bss__ZZN11DeliverTask8instanceEvE8INSTANCE) for DeliverTask::instance()::INSTANCE
    bluetoothevent.o(i._ZN14BluetoothEvent8onResultEPKht) refers to bluetoothevent.o(i._ZN9Bluetooth8instanceEv) for Bluetooth::instance()
    bluetoothevent.o(.ARM.exidx) refers to bluetoothevent.o(i._ZN14BluetoothEvent7disposeEv) for i._ZN14BluetoothEvent7disposeEv
    bluetoothevent.o(.ARM.exidx) refers to bluetoothevent.o(i._ZN14BluetoothEvent15onCheckRobotArmEv) for i._ZN14BluetoothEvent15onCheckRobotArmEv
    bluetoothevent.o(.ARM.exidx) refers to bluetoothevent.o(i._ZN14BluetoothEvent8onReturnEh) for i._ZN14BluetoothEvent8onReturnEh
    bluetoothevent.o(.ARM.exidx) refers to bluetoothevent.o(i._ZN14BluetoothEvent14onStatusChangeEhhh) for i._ZN14BluetoothEvent14onStatusChangeEhhh
    bluetoothevent.o(.ARM.exidx) refers to bluetoothevent.o(i._ZN14BluetoothEvent8onResultEPKht) for i._ZN14BluetoothEvent8onResultEPKht
    event.o(i._ZNK5Event17isCorrectOfResultEv) refers to event.o(i._ZNK5Event5checkEv) for Event::check() const
    event.o(i._ZNK5Event9isCorrectEv) refers to event.o(i._ZNK5Event5checkEv) for Event::check() const
    event.o(.ARM.exidx) refers to event.o(i._ZNK5Event5checkEv) for i._ZNK5Event5checkEv
    event.o(.ARM.exidx) refers to event.o(i._ZNK5Event9isCorrectEv) for i._ZNK5Event9isCorrectEv
    event.o(.ARM.exidx) refers to event.o(i._ZNK5Event17isCorrectOfResultEv) for i._ZNK5Event17isCorrectOfResultEv
    event.o(.ARM.exidx) refers to event.o(i._ZN5Event8onReturnEh) for i._ZN5Event8onReturnEh
    event.o(.ARM.exidx) refers to event.o(i._ZN5Event14onStatusChangeEhhh) for i._ZN5Event14onStatusChangeEhhh
    event.o(.ARM.exidx) refers to event.o(i._ZN5Event8onResultEPKht) for i._ZN5Event8onResultEPKht
    mainevent.o(i._ZN9MainEvent11onOTANotifyEv) refers to mainevent.o(i._ZN10OTAManager8instanceEv) for OTAManager::instance()
    mainevent.o(i._ZN9MainEvent11onOTANotifyEv) refers to mainevent.o(i._ZN10OTAManager4initEj) for OTAManager::init(unsigned)
    mainevent.o(i._ZN9MainEvent11onOTANotifyEv) refers to mainevent.o(i._ZN8ProtocolC1EPh) for Protocol::Protocol(unsigned char*)
    mainevent.o(i._ZN9MainEvent11onOTANotifyEv) refers to bluetoothevent.o(i._ZN8Protocol7append1Eh) for Protocol::append1(unsigned char)
    mainevent.o(i._ZN9MainEvent11onOTANotifyEv) refers to protocol.o(i._ZN8Protocol5buildEPh) for Protocol::build(unsigned char*)
    mainevent.o(i._ZN9MainEvent11onOTANotifyEv) refers to mainevent.o(i._ZN8MainUart8instanceEv) for MainUart::instance()
    mainevent.o(i._ZN9MainEvent22isCorrectNoCheckLengthEv) refers to event.o(i._ZNK5Event5checkEv) for Event::check() const
    mainevent.o(i._ZN9MainEvent5writeEhh) refers to mainevent.o(i._ZN8ProtocolC1EPh) for Protocol::Protocol(unsigned char*)
    mainevent.o(i._ZN9MainEvent5writeEhh) refers to bluetoothevent.o(i._ZN8Protocol7append1Eh) for Protocol::append1(unsigned char)
    mainevent.o(i._ZN9MainEvent5writeEhh) refers to protocol.o(i._ZN8Protocol5buildEPh) for Protocol::build(unsigned char*)
    mainevent.o(i._ZN9MainEvent5writeEhh) refers to mainevent.o(i._ZN8MainUart8instanceEv) for MainUart::instance()
    mainevent.o(i._ZN9MainEvent5writeEhhh) refers to mainevent.o(i._ZN8ProtocolC1EPh) for Protocol::Protocol(unsigned char*)
    mainevent.o(i._ZN9MainEvent5writeEhhh) refers to bluetoothevent.o(i._ZN8Protocol7append1Eh) for Protocol::append1(unsigned char)
    mainevent.o(i._ZN9MainEvent5writeEhhh) refers to protocol.o(i._ZN8Protocol5buildEPh) for Protocol::build(unsigned char*)
    mainevent.o(i._ZN9MainEvent5writeEhhh) refers to mainevent.o(i._ZN8MainUart8instanceEv) for MainUart::instance()
    mainevent.o(i._ZN9MainEvent7disposeEv) refers to event.o(i._ZNK5Event17isCorrectOfResultEv) for Event::isCorrectOfResult() const
    mainevent.o(i._ZN9MainEvent7disposeEv) refers to mainevent.o(i._ZN9MainEvent5writeEhh) for MainEvent::write(unsigned char, unsigned char)
    mainevent.o(i._ZN9MainEvent7disposeEv) refers to mainevent.o(i._ZN11DeliverTask8instanceEv) for DeliverTask::instance()
    mainevent.o(i._ZN9MainEvent7disposeEv) refers to mainevent.o(i._ZN8Receiver3putEPK5Event) for Receiver::put(const Event*)
    mainevent.o(i._ZN9MainEvent7disposeEv) refers to mainevent.o(i._ZN9MainEvent11onOTANotifyEv) for MainEvent::onOTANotify()
    mainevent.o(i._ZN9MainEvent7disposeEv) refers to mainevent.o(i._ZN9MainEvent9onPackageEv) for MainEvent::onPackage()
    mainevent.o(i._ZN9MainEvent8onResultEPKht) refers to mainevent.o(i._ZN8MainUart8instanceEv) for MainUart::instance()
    mainevent.o(i._ZN9MainEvent9onPackageEv) refers to mainevent.o(i._ZN10OTAManager8instanceEv) for OTAManager::instance()
    mainevent.o(i._ZN9MainEvent9onPackageEv) refers to otamanager.o(i._ZN10OTAManager6xWriteEtPKhj) for OTAManager::xWrite(unsigned short, const unsigned char*, unsigned)
    mainevent.o(i._ZN9MainEvent9onPackageEv) refers to mainevent.o(i._ZN8ProtocolC1EPh) for Protocol::Protocol(unsigned char*)
    mainevent.o(i._ZN9MainEvent9onPackageEv) refers to mainevent.o(i._ZN8Protocol7append2Et) for Protocol::append2(unsigned short)
    mainevent.o(i._ZN9MainEvent9onPackageEv) refers to bluetoothevent.o(i._ZN8Protocol7append1Eh) for Protocol::append1(unsigned char)
    mainevent.o(i._ZN9MainEvent9onPackageEv) refers to protocol.o(i._ZN8Protocol5buildEPh) for Protocol::build(unsigned char*)
    mainevent.o(i._ZN9MainEvent9onPackageEv) refers to mainevent.o(i._ZN8MainUart8instanceEv) for MainUart::instance()
    mainevent.o(.ARM.exidx) refers to mainevent.o(i._ZN9MainEvent9onPackageEv) for i._ZN9MainEvent9onPackageEv
    mainevent.o(.ARM.exidx) refers to mainevent.o(i._ZN9MainEvent11onOTANotifyEv) for i._ZN9MainEvent11onOTANotifyEv
    mainevent.o(.ARM.exidx) refers to mainevent.o(i._ZN9MainEvent5writeEhh) for i._ZN9MainEvent5writeEhh
    mainevent.o(.ARM.exidx) refers to mainevent.o(i._ZN9MainEvent7disposeEv) for i._ZN9MainEvent7disposeEv
    mainevent.o(.ARM.exidx) refers to mainevent.o(i._ZN9MainEvent8onResultEPKht) for i._ZN9MainEvent8onResultEPKht
    mainevent.o(.ARM.exidx) refers to mainevent.o(i._ZN9MainEvent22isCorrectNoCheckLengthEv) for i._ZN9MainEvent22isCorrectNoCheckLengthEv
    mainevent.o(.ARM.exidx) refers to mainevent.o(i._ZN9MainEvent5writeEhhh) for i._ZN9MainEvent5writeEhhh
    receiver.o(i._ZN8ReceiverC1EPKcPyjj) refers to rtx_msgqueue.o(.text.osMessageQueueNew) for osMessageQueueNew
    receiver.o(.ARM.exidx) refers to receiver.o(i._ZN8ReceiverC1EPKcPyjj) for i._ZN8ReceiverC1EPKcPyjj
    sender.o(i._ZN6SenderC1EPKc) refers to rtx_mutex.o(.text.osMutexNew) for osMutexNew
    sender.o(.ARM.exidx) refers to sender.o(i._ZN6SenderC1EPKc) for i._ZN6SenderC1EPKc
    logevent.o(i._ZN8LogEvent14onStatusChangeEhhh) refers to bluetoothevent.o(i._ZN8Protocol7append1Eh) for Protocol::append1(unsigned char)
    logevent.o(i._ZN8LogEvent14onStatusChangeEhhh) refers to protocol.o(i._ZN8Protocol5buildEPh) for Protocol::build(unsigned char*)
    logevent.o(i._ZN8LogEvent14onStatusChangeEhhh) refers to logevent.o(i._ZN7LogUart8instanceEv) for LogUart::instance()
    logevent.o(i._ZN8LogEvent15onCheckRobotArmEv) refers to cxa_guard_acquire.o(i.__cxa_guard_acquire) for __cxa_guard_acquire
    logevent.o(i._ZN8LogEvent15onCheckRobotArmEv) refers to robotarm1.o(i._ZN9RobotArm1C1Ev) for RobotArm1::RobotArm1()
    logevent.o(i._ZN8LogEvent15onCheckRobotArmEv) refers to bluetoothevent.o(i._ZN11FlashMemory8instanceEv) for FlashMemory::instance()
    logevent.o(i._ZN8LogEvent15onCheckRobotArmEv) refers to robotarm2.o(i._ZN9RobotArm2C1Ev) for RobotArm2::RobotArm2()
    logevent.o(i._ZN8LogEvent15onCheckRobotArmEv) refers to flashmemory.o(i._ZN11FlashMemory12vSectorEarseEj) for FlashMemory::vSectorEarse(unsigned)
    logevent.o(i._ZN8LogEvent15onCheckRobotArmEv) refers to flashmemory.o(i._ZN11FlashMemory10vWriteDataEjPKhj) for FlashMemory::vWriteData(unsigned, const unsigned char*, unsigned)
    logevent.o(i._ZN8LogEvent15onCheckRobotArmEv) refers to baseprotocol.o(i._ZN12BaseProtocolC1EPhRK5Eventh) for BaseProtocol::BaseProtocol(unsigned char*, const Event&, unsigned char)
    logevent.o(i._ZN8LogEvent15onCheckRobotArmEv) refers to logevent.o(i._ZN12BaseProtocol5writeEv) for BaseProtocol::write()
    logevent.o(i._ZN8LogEvent15onCheckRobotArmEv) refers to bluetoothevent.o(.data__ZZN9RobotArm18instanceEvE1r) for guard variable for RobotArm1::instance()::r
    logevent.o(i._ZN8LogEvent15onCheckRobotArmEv) refers to bluetoothevent.o(.bss__ZZN9RobotArm18instanceEvE1r) for RobotArm1::instance()::r
    logevent.o(i._ZN8LogEvent15onCheckRobotArmEv) refers to bluetoothevent.o(.data__ZZN9RobotArm28instanceEvE8instance) for guard variable for RobotArm2::instance()::instance
    logevent.o(i._ZN8LogEvent15onCheckRobotArmEv) refers to bluetoothevent.o(.bss__ZZN9RobotArm28instanceEvE8instance) for RobotArm2::instance()::instance
    logevent.o(i._ZN8LogEvent7disposeEv) refers to event.o(i._ZNK5Event9isCorrectEv) for Event::isCorrect() const
    logevent.o(i._ZN8LogEvent7disposeEv) refers to baseprotocol.o(i._ZN12BaseProtocolC1EPhRK5Eventh) for BaseProtocol::BaseProtocol(unsigned char*, const Event&, unsigned char)
    logevent.o(i._ZN8LogEvent7disposeEv) refers to logevent.o(i._ZN12BaseProtocol5writeEv) for BaseProtocol::write()
    logevent.o(i._ZN8LogEvent7disposeEv) refers to logevent.o(i._ZN8LogEvent15onCheckRobotArmEv) for LogEvent::onCheckRobotArm()
    logevent.o(i._ZN8LogEvent7disposeEv) refers to cxa_guard_acquire.o(i.__cxa_guard_acquire) for __cxa_guard_acquire
    logevent.o(i._ZN8LogEvent7disposeEv) refers to delivertask.o(i._ZN11DeliverTaskC1Ev) for DeliverTask::DeliverTask()
    logevent.o(i._ZN8LogEvent7disposeEv) refers to rtx_msgqueue.o(.text.osMessageQueuePut) for osMessageQueuePut
    logevent.o(i._ZN8LogEvent7disposeEv) refers to bluetoothevent.o(.data__ZZN11DeliverTask8instanceEvE8INSTANCE) for guard variable for DeliverTask::instance()::INSTANCE
    logevent.o(i._ZN8LogEvent7disposeEv) refers to bluetoothevent.o(.bss__ZZN11DeliverTask8instanceEvE8INSTANCE) for DeliverTask::instance()::INSTANCE
    logevent.o(i._ZN8LogEvent8onReturnEh) refers to baseprotocol.o(i._ZN12BaseProtocolC1EPhRK5Eventh) for BaseProtocol::BaseProtocol(unsigned char*, const Event&, unsigned char)
    logevent.o(i._ZN8LogEvent8onReturnEh) refers to logevent.o(i._ZN7LogUart8instanceEv) for LogUart::instance()
    logevent.o(.ARM.exidx) refers to logevent.o(i._ZN8LogEvent15onCheckRobotArmEv) for i._ZN8LogEvent15onCheckRobotArmEv
    logevent.o(.ARM.exidx) refers to logevent.o(i._ZN8LogEvent7disposeEv) for i._ZN8LogEvent7disposeEv
    logevent.o(.ARM.exidx) refers to logevent.o(i._ZN8LogEvent8onReturnEh) for i._ZN8LogEvent8onReturnEh
    logevent.o(.ARM.exidx) refers to logevent.o(i._ZN8LogEvent14onStatusChangeEhhh) for i._ZN8LogEvent14onStatusChangeEhhh
    boottask.o(i._ZN8BootTask3runEv) refers to systimer.o(i._ZN8SysTimer5vInitEv) for SysTimer::vInit()
    boottask.o(i._ZN8BootTask3runEv) refers to cxa_guard_acquire.o(i.__cxa_guard_acquire) for __cxa_guard_acquire
    boottask.o(i._ZN8BootTask3runEv) refers to motordriver.o(i._ZN11MotorDriverC1Ev) for MotorDriver::MotorDriver()
    boottask.o(i._ZN8BootTask3runEv) refers to flashmemory.o(i._ZN11FlashMemoryC1Ev) for FlashMemory::FlashMemory()
    boottask.o(i._ZN8BootTask3runEv) refers to bluetooth.o(i._ZN9BluetoothC1Ev) for Bluetooth::Bluetooth()
    boottask.o(i._ZN8BootTask3runEv) refers to compressor.o(i._ZN10CompressorC1Ev) for Compressor::Compressor()
    boottask.o(i._ZN8BootTask3runEv) refers to ds18b20.o(i._ZN7Ds18b20C1Ev) for Ds18b20::Ds18b20()
    boottask.o(i._ZN8BootTask3runEv) refers to elock.o(i._ZN5ELock5vInitEv) for ELock::vInit()
    boottask.o(i._ZN8BootTask3runEv) refers to loguart.o(i._ZN7LogUartC1Ev) for LogUart::LogUart()
    boottask.o(i._ZN8BootTask3runEv) refers to mainuart.o(i._ZN8MainUartC1Ev) for MainUart::MainUart()
    boottask.o(i._ZN8BootTask3runEv) refers to positionswitch.o(i._ZN14PositionSwitchC1Ev) for PositionSwitch::PositionSwitch()
    boottask.o(i._ZN8BootTask3runEv) refers to robotarm1.o(i._ZN9RobotArm1C1Ev) for RobotArm1::RobotArm1()
    boottask.o(i._ZN8BootTask3runEv) refers to robotarm2.o(i._ZN9RobotArm2C1Ev) for RobotArm2::RobotArm2()
    boottask.o(i._ZN8BootTask3runEv) refers to pickmotor.o(i._ZN9PickMotorC1Ev) for PickMotor::PickMotor()
    boottask.o(i._ZN8BootTask3runEv) refers to fridge.o(i._ZN6FridgeC1Ev) for Fridge::Fridge()
    boottask.o(i._ZN8BootTask3runEv) refers to delivertask.o(i._ZN11DeliverTaskC1Ev) for DeliverTask::DeliverTask()
    boottask.o(i._ZN8BootTask3runEv) refers to task.o(i._ZN4Task5startEv) for Task::start()
    boottask.o(i._ZN8BootTask3runEv) refers to messagedispensetask.o(i._ZN19MessageDispenseTaskC1Ev) for MessageDispenseTask::MessageDispenseTask()
    boottask.o(i._ZN8BootTask3runEv) refers to statusupdatetask.o(i._ZN16StatusUpdateTaskC1Ev) for StatusUpdateTask::StatusUpdateTask()
    boottask.o(i._ZN8BootTask3runEv) refers to led.o(i._ZN3LedC1Ev) for Led::Led()
    boottask.o(i._ZN8BootTask3runEv) refers to led.o(i._ZN3Led5blinkEv) for Led::blink()
    boottask.o(i._ZN8BootTask3runEv) refers to boottask.o(.data__ZZN11MotorDriver8instanceEvE6driver) for guard variable for MotorDriver::instance()::driver
    boottask.o(i._ZN8BootTask3runEv) refers to bluetoothevent.o(.data__ZZN11FlashMemory8instanceEvE1m) for guard variable for FlashMemory::instance()::m
    boottask.o(i._ZN8BootTask3runEv) refers to bluetoothevent.o(.bss__ZZN11FlashMemory8instanceEvE1m) for FlashMemory::instance()::m
    boottask.o(i._ZN8BootTask3runEv) refers to bluetoothevent.o(.data__ZZN9Bluetooth8instanceEvE3ble) for guard variable for Bluetooth::instance()::ble
    boottask.o(i._ZN8BootTask3runEv) refers to bluetoothevent.o(.bss__ZZN9Bluetooth8instanceEvE3ble) for Bluetooth::instance()::ble
    boottask.o(i._ZN8BootTask3runEv) refers to boottask.o(.data__ZZN10Compressor8instanceEvE3com) for guard variable for Compressor::instance()::com
    boottask.o(i._ZN8BootTask3runEv) refers to boottask.o(.data__ZZN7Ds18b208instanceEvE6device) for guard variable for Ds18b20::instance()::device
    boottask.o(i._ZN8BootTask3runEv) refers to logevent.o(.data__ZZN7LogUart8instanceEvE4uart) for guard variable for LogUart::instance()::uart
    boottask.o(i._ZN8BootTask3runEv) refers to logevent.o(.bss__ZZN7LogUart8instanceEvE4uart) for LogUart::instance()::uart
    boottask.o(i._ZN8BootTask3runEv) refers to mainevent.o(.data__ZZN8MainUart8instanceEvE4uart) for guard variable for MainUart::instance()::uart
    boottask.o(i._ZN8BootTask3runEv) refers to mainevent.o(.bss__ZZN8MainUart8instanceEvE4uart) for MainUart::instance()::uart
    boottask.o(i._ZN8BootTask3runEv) refers to boottask.o(.data__ZZN14PositionSwitch8instanceEvE8instance) for guard variable for PositionSwitch::instance()::instance
    boottask.o(i._ZN8BootTask3runEv) refers to boottask.o(.bss__ZZN14PositionSwitch8instanceEvE8instance) for PositionSwitch::instance()::instance
    boottask.o(i._ZN8BootTask3runEv) refers to bluetoothevent.o(.data__ZZN9RobotArm18instanceEvE1r) for guard variable for RobotArm1::instance()::r
    boottask.o(i._ZN8BootTask3runEv) refers to bluetoothevent.o(.bss__ZZN9RobotArm18instanceEvE1r) for RobotArm1::instance()::r
    boottask.o(i._ZN8BootTask3runEv) refers to bluetoothevent.o(.data__ZZN9RobotArm28instanceEvE8instance) for guard variable for RobotArm2::instance()::instance
    boottask.o(i._ZN8BootTask3runEv) refers to bluetoothevent.o(.bss__ZZN9RobotArm28instanceEvE8instance) for RobotArm2::instance()::instance
    boottask.o(i._ZN8BootTask3runEv) refers to boottask.o(.data__ZZN9PickMotor8instanceEvE9pickMotor) for guard variable for PickMotor::instance()::pickMotor
    boottask.o(i._ZN8BootTask3runEv) refers to boottask.o(.bss__ZZN9PickMotor8instanceEvE9pickMotor) for PickMotor::instance()::pickMotor
    boottask.o(i._ZN8BootTask3runEv) refers to boottask.o(.data__ZZN6Fridge8instanceEvE6fridge) for guard variable for Fridge::instance()::fridge
    boottask.o(i._ZN8BootTask3runEv) refers to boottask.o(.bss__ZZN6Fridge8instanceEvE6fridge) for Fridge::instance()::fridge
    boottask.o(i._ZN8BootTask3runEv) refers to bluetoothevent.o(.data__ZZN11DeliverTask8instanceEvE8INSTANCE) for guard variable for DeliverTask::instance()::INSTANCE
    boottask.o(i._ZN8BootTask3runEv) refers to bluetoothevent.o(.bss__ZZN11DeliverTask8instanceEvE8INSTANCE) for DeliverTask::instance()::INSTANCE
    boottask.o(i._ZN8BootTask3runEv) refers to boottask.o(.data__ZZN19MessageDispenseTask8instanceEvE8INSTANCE) for guard variable for MessageDispenseTask::instance()::INSTANCE
    boottask.o(i._ZN8BootTask3runEv) refers to boottask.o(.bss__ZZN19MessageDispenseTask8instanceEvE8INSTANCE) for MessageDispenseTask::instance()::INSTANCE
    boottask.o(i._ZN8BootTask3runEv) refers to boottask.o(.data__ZZN16StatusUpdateTask8instanceEvE4task) for guard variable for StatusUpdateTask::instance()::task
    boottask.o(i._ZN8BootTask3runEv) refers to boottask.o(.bss__ZZN16StatusUpdateTask8instanceEvE4task) for StatusUpdateTask::instance()::task
    boottask.o(i._ZN8BootTask3runEv) refers to boottask.o(.data__ZZN3Led8instanceEvE1l) for guard variable for Led::instance()::l
    boottask.o(i._ZN8BootTaskC1Ev) refers to task.o(i._ZN4TaskC2EPKcPyj12osPriority_t) for Task::Task__sub_object(const char*, unsigned long long*, unsigned, osPriority_t)
    boottask.o(i._ZN8BootTaskC1Ev) refers to boottask.o(.constdata__ZTV8BootTask) for vtable for BootTask
    boottask.o(.ARM.exidx) refers to boottask.o(i._ZN8BootTask3runEv) for i._ZN8BootTask3runEv
    boottask.o(.ARM.exidx) refers to boottask.o(i._ZN8BootTaskC1Ev) for i._ZN8BootTaskC1Ev
    task.o(i._ZN4Task14startThreadFunEPv) refers to rtx_thread.o(.text.osThreadExit) for osThreadExit
    task.o(i._ZN4Task4stopEv) refers to rtx_thread.o(.text.osThreadTerminate) for osThreadTerminate
    task.o(i._ZN4Task5startEv) refers to task.o(i._ZN4Task4stopEv) for Task::stop()
    task.o(i._ZN4Task5startEv) refers to rtx_thread.o(.text.osThreadNew) for osThreadNew
    task.o(i._ZN4Task5startEv) refers to task.o(i._ZN4Task14startThreadFunEPv) for Task::startThreadFun(void*)
    task.o(i._ZN4TaskC2EPKcPyj12osPriority_t) refers to task.o(.constdata__ZTV4Task) for vtable for Task
    task.o(.ARM.exidx) refers to task.o(i._ZN4TaskC2EPKcPyj12osPriority_t) for i._ZN4TaskC2EPKcPyj12osPriority_t
    task.o(.ARM.exidx) refers to task.o(i._ZN4Task14startThreadFunEPv) for i._ZN4Task14startThreadFunEPv
    task.o(.ARM.exidx) refers to task.o(i._ZN4Task4stopEv) for i._ZN4Task4stopEv
    task.o(.ARM.exidx) refers to task.o(i._ZN4Task5startEv) for i._ZN4Task5startEv
    statusupdatetask.o(i._ZN16StatusUpdateTask3runEv) refers to cxa_guard_acquire.o(i.__cxa_guard_acquire) for __cxa_guard_acquire
    statusupdatetask.o(i._ZN16StatusUpdateTask3runEv) refers to ds18b20.o(i._ZN7Ds18b20C1Ev) for Ds18b20::Ds18b20()
    statusupdatetask.o(i._ZN16StatusUpdateTask3runEv) refers to ds18b20.o(i._ZN7Ds18b209xGetValueEv) for Ds18b20::xGetValue()
    statusupdatetask.o(i._ZN16StatusUpdateTask3runEv) refers to robotarm1.o(i._ZN9RobotArm1C1Ev) for RobotArm1::RobotArm1()
    statusupdatetask.o(i._ZN16StatusUpdateTask3runEv) refers to robotarm1.o(i._ZN9RobotArm120xGetAbsolutePositionEv) for RobotArm1::xGetAbsolutePosition()
    statusupdatetask.o(i._ZN16StatusUpdateTask3runEv) refers to robotarm2.o(i._ZN9RobotArm2C1Ev) for RobotArm2::RobotArm2()
    statusupdatetask.o(i._ZN16StatusUpdateTask3runEv) refers to robotarm2.o(i._ZN9RobotArm220xGetAbsolutePositionEv) for RobotArm2::xGetAbsolutePosition()
    statusupdatetask.o(i._ZN16StatusUpdateTask3runEv) refers to positionswitch.o(i._ZN14PositionSwitchC1Ev) for PositionSwitch::PositionSwitch()
    statusupdatetask.o(i._ZN16StatusUpdateTask3runEv) refers to positionswitch.o(i._ZN14PositionSwitch9xGetValueEv) for PositionSwitch::xGetValue()
    statusupdatetask.o(i._ZN16StatusUpdateTask3runEv) refers to bluetoothevent.o(i._ZN9Bluetooth8instanceEv) for Bluetooth::instance()
    statusupdatetask.o(i._ZN16StatusUpdateTask3runEv) refers to mainevent.o(i._ZN8MainUart8instanceEv) for MainUart::instance()
    statusupdatetask.o(i._ZN16StatusUpdateTask3runEv) refers to statusupdatetask.o(i._ZN10BaseOutput9setActionEh) for BaseOutput::setAction(unsigned char)
    statusupdatetask.o(i._ZN16StatusUpdateTask3runEv) refers to statusupdatetask.o(i._ZN10BaseOutput7append2Et) for BaseOutput::append2(unsigned short)
    statusupdatetask.o(i._ZN16StatusUpdateTask3runEv) refers to statusupdatetask.o(i._ZN10BaseOutput7append1Eh) for BaseOutput::append1(unsigned char)
    statusupdatetask.o(i._ZN16StatusUpdateTask3runEv) refers to statusupdatetask.o(i._ZN10BaseOutput13buildAndWriteEv) for BaseOutput::buildAndWrite()
    statusupdatetask.o(i._ZN16StatusUpdateTask3runEv) refers to rtx_delay.o(.text.osDelay) for osDelay
    statusupdatetask.o(i._ZN16StatusUpdateTask3runEv) refers to boottask.o(.data__ZZN7Ds18b208instanceEvE6device) for guard variable for Ds18b20::instance()::device
    statusupdatetask.o(i._ZN16StatusUpdateTask3runEv) refers to bluetoothevent.o(.data__ZZN9RobotArm18instanceEvE1r) for guard variable for RobotArm1::instance()::r
    statusupdatetask.o(i._ZN16StatusUpdateTask3runEv) refers to bluetoothevent.o(.bss__ZZN9RobotArm18instanceEvE1r) for RobotArm1::instance()::r
    statusupdatetask.o(i._ZN16StatusUpdateTask3runEv) refers to bluetoothevent.o(.data__ZZN9RobotArm28instanceEvE8instance) for guard variable for RobotArm2::instance()::instance
    statusupdatetask.o(i._ZN16StatusUpdateTask3runEv) refers to bluetoothevent.o(.bss__ZZN9RobotArm28instanceEvE8instance) for RobotArm2::instance()::instance
    statusupdatetask.o(i._ZN16StatusUpdateTask3runEv) refers to boottask.o(.data__ZZN14PositionSwitch8instanceEvE8instance) for guard variable for PositionSwitch::instance()::instance
    statusupdatetask.o(i._ZN16StatusUpdateTask3runEv) refers to boottask.o(.bss__ZZN14PositionSwitch8instanceEvE8instance) for PositionSwitch::instance()::instance
    statusupdatetask.o(i._ZN16StatusUpdateTaskC1Ev) refers to task.o(i._ZN4TaskC2EPKcPyj12osPriority_t) for Task::Task__sub_object(const char*, unsigned long long*, unsigned, osPriority_t)
    statusupdatetask.o(i._ZN16StatusUpdateTaskC1Ev) refers to statusupdatetask.o(.constdata__ZTV16StatusUpdateTask) for vtable for StatusUpdateTask
    statusupdatetask.o(.ARM.exidx) refers to statusupdatetask.o(i._ZN16StatusUpdateTask3runEv) for i._ZN16StatusUpdateTask3runEv
    statusupdatetask.o(.ARM.exidx) refers to statusupdatetask.o(i._ZN16StatusUpdateTaskC1Ev) for i._ZN16StatusUpdateTaskC1Ev
    messagedispensetask.o(i._ZN19MessageDispenseTask3runEv) refers to cxa_guard_acquire.o(i.__cxa_guard_acquire) for __cxa_guard_acquire
    messagedispensetask.o(i._ZN19MessageDispenseTask3runEv) refers to mainuart.o(i._ZN8MainUartC1Ev) for MainUart::MainUart()
    messagedispensetask.o(i._ZN19MessageDispenseTask3runEv) refers to loguart.o(i._ZN7LogUartC1Ev) for LogUart::LogUart()
    messagedispensetask.o(i._ZN19MessageDispenseTask3runEv) refers to bluetooth.o(i._ZN9BluetoothC1Ev) for Bluetooth::Bluetooth()
    messagedispensetask.o(i._ZN19MessageDispenseTask3runEv) refers to messagedispensetask.o(i._ZN5EventC1Ev) for Event::Event()
    messagedispensetask.o(i._ZN19MessageDispenseTask3runEv) refers to messagedispensetask.o(i._ZN8Receiver4recvEP5Eventj) for Receiver::recv(Event*, unsigned)
    messagedispensetask.o(i._ZN19MessageDispenseTask3runEv) refers to mainevent.o(i._ZN9MainEvent7disposeEv) for MainEvent::dispose()
    messagedispensetask.o(i._ZN19MessageDispenseTask3runEv) refers to logevent.o(i._ZN8LogEvent7disposeEv) for LogEvent::dispose()
    messagedispensetask.o(i._ZN19MessageDispenseTask3runEv) refers to bluetoothevent.o(i._ZN14BluetoothEvent7disposeEv) for BluetoothEvent::dispose()
    messagedispensetask.o(i._ZN19MessageDispenseTask3runEv) refers to mainevent.o(.data__ZZN8MainUart8instanceEvE4uart) for guard variable for MainUart::instance()::uart
    messagedispensetask.o(i._ZN19MessageDispenseTask3runEv) refers to mainevent.o(.bss__ZZN8MainUart8instanceEvE4uart) for MainUart::instance()::uart
    messagedispensetask.o(i._ZN19MessageDispenseTask3runEv) refers to logevent.o(.data__ZZN7LogUart8instanceEvE4uart) for guard variable for LogUart::instance()::uart
    messagedispensetask.o(i._ZN19MessageDispenseTask3runEv) refers to logevent.o(.bss__ZZN7LogUart8instanceEvE4uart) for LogUart::instance()::uart
    messagedispensetask.o(i._ZN19MessageDispenseTask3runEv) refers to bluetoothevent.o(.data__ZZN9Bluetooth8instanceEvE3ble) for guard variable for Bluetooth::instance()::ble
    messagedispensetask.o(i._ZN19MessageDispenseTask3runEv) refers to bluetoothevent.o(.bss__ZZN9Bluetooth8instanceEvE3ble) for Bluetooth::instance()::ble
    messagedispensetask.o(i._ZN19MessageDispenseTask3runEv) refers to mainevent.o(.constdata__ZTV9MainEvent) for vtable for MainEvent
    messagedispensetask.o(i._ZN19MessageDispenseTask3runEv) refers to logevent.o(.constdata__ZTV8LogEvent) for vtable for LogEvent
    messagedispensetask.o(i._ZN19MessageDispenseTask3runEv) refers to bluetoothevent.o(.constdata__ZTV14BluetoothEvent) for vtable for BluetoothEvent
    messagedispensetask.o(i._ZN19MessageDispenseTaskC1Ev) refers to task.o(i._ZN4TaskC2EPKcPyj12osPriority_t) for Task::Task__sub_object(const char*, unsigned long long*, unsigned, osPriority_t)
    messagedispensetask.o(i._ZN19MessageDispenseTaskC1Ev) refers to messagedispensetask.o(.constdata__ZTV19MessageDispenseTask) for vtable for MessageDispenseTask
    messagedispensetask.o(.ARM.exidx) refers to messagedispensetask.o(i._ZN19MessageDispenseTask3runEv) for i._ZN19MessageDispenseTask3runEv
    messagedispensetask.o(.ARM.exidx) refers to messagedispensetask.o(i._ZN19MessageDispenseTaskC1Ev) for i._ZN19MessageDispenseTaskC1Ev
    delivertask.o(i._ZN11DeliverTask10testFridgeER5Event) refers to delivertask.o(i._ZNK5Event4arg2Eh) for Event::arg2(unsigned char) const
    delivertask.o(i._ZN11DeliverTask10testFridgeER5Event) refers to delivertask.o(i._ZN6Fridge8instanceEv) for Fridge::instance()
    delivertask.o(i._ZN11DeliverTask10testFridgeER5Event) refers to fridge.o(i._ZN6Fridge5xOpenEtj) for Fridge::xOpen(unsigned short, unsigned)
    delivertask.o(i._ZN11DeliverTask10testFridgeER5Event) refers to fridge.o(i._ZN6Fridge6xCloseEtj) for Fridge::xClose(unsigned short, unsigned)
    delivertask.o(i._ZN11DeliverTask12robotArmTestER5Event) refers to bluetoothevent.o(i._ZN11FlashMemory8instanceEv) for FlashMemory::instance()
    delivertask.o(i._ZN11DeliverTask12robotArmTestER5Event) refers to delivertask.o(i._ZNK5Event4arg2Eh) for Event::arg2(unsigned char) const
    delivertask.o(i._ZN11DeliverTask12robotArmTestER5Event) refers to delivertask.o(i._ZN6Fridge8instanceEv) for Fridge::instance()
    delivertask.o(i._ZN11DeliverTask12robotArmTestER5Event) refers to fridge.o(i._ZN6Fridge5xOpenEtj) for Fridge::xOpen(unsigned short, unsigned)
    delivertask.o(i._ZN11DeliverTask12robotArmTestER5Event) refers to delivertask.o(i._ZN9PickMotor8instanceEv) for PickMotor::instance()
    delivertask.o(i._ZN11DeliverTask12robotArmTestER5Event) refers to pickmotor.o(i._ZN9PickMotor5xGoUpEtjj) for PickMotor::xGoUp(unsigned short, unsigned, unsigned)
    delivertask.o(i._ZN11DeliverTask12robotArmTestER5Event) refers to delivertask.o(i._ZN9RobotArm18instanceEv) for RobotArm1::instance()
    delivertask.o(i._ZN11DeliverTask12robotArmTestER5Event) refers to robotarm1.o(i._ZN9RobotArm111xRotationToEtjt) for RobotArm1::xRotationTo(unsigned short, unsigned, unsigned short)
    delivertask.o(i._ZN11DeliverTask12robotArmTestER5Event) refers to delivertask.o(i._ZN9RobotArm28instanceEv) for RobotArm2::instance()
    delivertask.o(i._ZN11DeliverTask12robotArmTestER5Event) refers to robotarm2.o(i._ZN9RobotArm211xRotationToEtjt) for RobotArm2::xRotationTo(unsigned short, unsigned, unsigned short)
    delivertask.o(i._ZN11DeliverTask12robotArmTestER5Event) refers to robotarm2.o(i._ZN9RobotArm214vInversedBrakeEv) for RobotArm2::vInversedBrake()
    delivertask.o(i._ZN11DeliverTask12robotArmTestER5Event) refers to pickmotor.o(i._ZN9PickMotor7xGoDownEtjj) for PickMotor::xGoDown(unsigned short, unsigned, unsigned)
    delivertask.o(i._ZN11DeliverTask12setGoodsTypeER5Event) refers to delivertask.o(i._ZN9RobotArm18instanceEv) for RobotArm1::instance()
    delivertask.o(i._ZN11DeliverTask12setGoodsTypeER5Event) refers to robotarm1.o(i._ZN9RobotArm120xGetAbsolutePositionEv) for RobotArm1::xGetAbsolutePosition()
    delivertask.o(i._ZN11DeliverTask12setGoodsTypeER5Event) refers to delivertask.o(i._ZN9RobotArm28instanceEv) for RobotArm2::instance()
    delivertask.o(i._ZN11DeliverTask12setGoodsTypeER5Event) refers to robotarm2.o(i._ZN9RobotArm220xGetAbsolutePositionEv) for RobotArm2::xGetAbsolutePosition()
    delivertask.o(i._ZN11DeliverTask12setGoodsTypeER5Event) refers to bluetoothevent.o(i._ZN11FlashMemory8instanceEv) for FlashMemory::instance()
    delivertask.o(i._ZN11DeliverTask12setGoodsTypeER5Event) refers to delivertask.o(i._ZN11FlashMemory4saveEv) for FlashMemory::save()
    delivertask.o(i._ZN11DeliverTask12setGoodsTypeER5Event) refers to mainevent.o(i._ZN8ProtocolC1EPh) for Protocol::Protocol(unsigned char*)
    delivertask.o(i._ZN11DeliverTask12setGoodsTypeER5Event) refers to bluetoothevent.o(i._ZN8Protocol7append1Eh) for Protocol::append1(unsigned char)
    delivertask.o(i._ZN11DeliverTask12setGoodsTypeER5Event) refers to mainevent.o(i._ZN8Protocol7append2Et) for Protocol::append2(unsigned short)
    delivertask.o(i._ZN11DeliverTask12setGoodsTypeER5Event) refers to protocol.o(i._ZN8Protocol5buildEPh) for Protocol::build(unsigned char*)
    delivertask.o(i._ZN11DeliverTask12testRobotArmER5Event) refers to delivertask.o(i._ZNK5Event4arg2Eh) for Event::arg2(unsigned char) const
    delivertask.o(i._ZN11DeliverTask12testRobotArmER5Event) refers to delivertask.o(i._ZN9RobotArm28instanceEv) for RobotArm2::instance()
    delivertask.o(i._ZN11DeliverTask12testRobotArmER5Event) refers to robotarm2.o(i._ZN9RobotArm211xRotationToEtjt) for RobotArm2::xRotationTo(unsigned short, unsigned, unsigned short)
    delivertask.o(i._ZN11DeliverTask12testRobotArmER5Event) refers to delivertask.o(i._ZN9RobotArm18instanceEv) for RobotArm1::instance()
    delivertask.o(i._ZN11DeliverTask12testRobotArmER5Event) refers to robotarm1.o(i._ZN9RobotArm111xRotationToEtjt) for RobotArm1::xRotationTo(unsigned short, unsigned, unsigned short)
    delivertask.o(i._ZN11DeliverTask13readGoodsTypeER5Event) refers to bluetoothevent.o(i._ZN11FlashMemory8instanceEv) for FlashMemory::instance()
    delivertask.o(i._ZN11DeliverTask13readGoodsTypeER5Event) refers to mainevent.o(i._ZN8ProtocolC1EPh) for Protocol::Protocol(unsigned char*)
    delivertask.o(i._ZN11DeliverTask13readGoodsTypeER5Event) refers to bluetoothevent.o(i._ZN8Protocol7append1Eh) for Protocol::append1(unsigned char)
    delivertask.o(i._ZN11DeliverTask13readGoodsTypeER5Event) refers to mainevent.o(i._ZN8Protocol7append2Et) for Protocol::append2(unsigned short)
    delivertask.o(i._ZN11DeliverTask13readGoodsTypeER5Event) refers to protocol.o(i._ZN8Protocol5buildEPh) for Protocol::build(unsigned char*)
    delivertask.o(i._ZN11DeliverTask13robotArmCheckER5Event) refers to delivertask.o(i._ZNK5Event4arg2Eh) for Event::arg2(unsigned char) const
    delivertask.o(i._ZN11DeliverTask13robotArmCheckER5Event) refers to delivertask.o(i._ZN9RobotArm18instanceEv) for RobotArm1::instance()
    delivertask.o(i._ZN11DeliverTask13robotArmCheckER5Event) refers to bluetoothevent.o(i._ZN11FlashMemory8instanceEv) for FlashMemory::instance()
    delivertask.o(i._ZN11DeliverTask13robotArmCheckER5Event) refers to delivertask.o(i._ZN9RobotArm28instanceEv) for RobotArm2::instance()
    delivertask.o(i._ZN11DeliverTask13robotArmCheckER5Event) refers to delivertask.o(i._ZN11FlashMemory4saveEv) for FlashMemory::save()
    delivertask.o(i._ZN11DeliverTask13robotArmCheckER5Event) refers to mainevent.o(i._ZN8ProtocolC1EPh) for Protocol::Protocol(unsigned char*)
    delivertask.o(i._ZN11DeliverTask13robotArmCheckER5Event) refers to bluetoothevent.o(i._ZN8Protocol7append1Eh) for Protocol::append1(unsigned char)
    delivertask.o(i._ZN11DeliverTask13robotArmCheckER5Event) refers to protocol.o(i._ZN8Protocol5buildEPh) for Protocol::build(unsigned char*)
    delivertask.o(i._ZN11DeliverTask13testPickMotorER5Event) refers to delivertask.o(i._ZNK5Event4arg2Eh) for Event::arg2(unsigned char) const
    delivertask.o(i._ZN11DeliverTask13testPickMotorER5Event) refers to delivertask.o(i._ZN9PickMotor8instanceEv) for PickMotor::instance()
    delivertask.o(i._ZN11DeliverTask13testPickMotorER5Event) refers to pickmotor.o(i._ZN9PickMotor5xGoUpEtjj) for PickMotor::xGoUp(unsigned short, unsigned, unsigned)
    delivertask.o(i._ZN11DeliverTask13testPickMotorER5Event) refers to pickmotor.o(i._ZN9PickMotor7xGoDownEtjj) for PickMotor::xGoDown(unsigned short, unsigned, unsigned)
    delivertask.o(i._ZN11DeliverTask14testCompressorER5Event) refers to delivertask.o(i._ZN10Compressor8instanceEv) for Compressor::instance()
    delivertask.o(i._ZN11DeliverTask16settingGoodsTypeER5Event) refers to delivertask.o(i._ZNK5Event4arg2Eh) for Event::arg2(unsigned char) const
    delivertask.o(i._ZN11DeliverTask16settingGoodsTypeER5Event) refers to bluetoothevent.o(i._ZN11FlashMemory8instanceEv) for FlashMemory::instance()
    delivertask.o(i._ZN11DeliverTask16settingGoodsTypeER5Event) refers to delivertask.o(i._ZN11FlashMemory4saveEv) for FlashMemory::save()
    delivertask.o(i._ZN11DeliverTask16settingGoodsTypeER5Event) refers to mainevent.o(i._ZN8ProtocolC1EPh) for Protocol::Protocol(unsigned char*)
    delivertask.o(i._ZN11DeliverTask16settingGoodsTypeER5Event) refers to bluetoothevent.o(i._ZN8Protocol7append1Eh) for Protocol::append1(unsigned char)
    delivertask.o(i._ZN11DeliverTask16settingGoodsTypeER5Event) refers to protocol.o(i._ZN8Protocol5buildEPh) for Protocol::build(unsigned char*)
    delivertask.o(i._ZN11DeliverTask3runEv) refers to rtx_msgqueue.o(.text.osMessageQueueGet) for osMessageQueueGet
    delivertask.o(i._ZN11DeliverTask3runEv) refers to delivertask.o(i._ZN11DeliverTask13robotArmCheckER5Event) for DeliverTask::robotArmCheck(Event&)
    delivertask.o(i._ZN11DeliverTask3runEv) refers to delivertask.o(i._ZN11DeliverTask12testRobotArmER5Event) for DeliverTask::testRobotArm(Event&)
    delivertask.o(i._ZN11DeliverTask3runEv) refers to delivertask.o(i._ZN11DeliverTask10testFridgeER5Event) for DeliverTask::testFridge(Event&)
    delivertask.o(i._ZN11DeliverTask3runEv) refers to delivertask.o(i._ZN11DeliverTask13testPickMotorER5Event) for DeliverTask::testPickMotor(Event&)
    delivertask.o(i._ZN11DeliverTask3runEv) refers to delivertask.o(i._ZN11DeliverTask14testCompressorER5Event) for DeliverTask::testCompressor(Event&)
    delivertask.o(i._ZN11DeliverTask3runEv) refers to delivertask.o(i._ZN11DeliverTask7deliverER5Event) for DeliverTask::deliver(Event&)
    delivertask.o(i._ZN11DeliverTask3runEv) refers to delivertask.o(i._ZN11DeliverTask12setGoodsTypeER5Event) for DeliverTask::setGoodsType(Event&)
    delivertask.o(i._ZN11DeliverTask3runEv) refers to delivertask.o(i._ZN11DeliverTask4initER5Event) for DeliverTask::init(Event&)
    delivertask.o(i._ZN11DeliverTask3runEv) refers to delivertask.o(i._ZN11DeliverTask12robotArmTestER5Event) for DeliverTask::robotArmTest(Event&)
    delivertask.o(i._ZN11DeliverTask3runEv) refers to delivertask.o(i._ZN11DeliverTask13readGoodsTypeER5Event) for DeliverTask::readGoodsType(Event&)
    delivertask.o(i._ZN11DeliverTask3runEv) refers to delivertask.o(i._ZN11DeliverTask16settingGoodsTypeER5Event) for DeliverTask::settingGoodsType(Event&)
    delivertask.o(i._ZN11DeliverTask3runEv) refers to rtx_delay.o(.text.osDelay) for osDelay
    delivertask.o(i._ZN11DeliverTask3runEv) refers to delivertask.o(i._ZN11MotorDriver8instanceEv) for MotorDriver::instance()
    delivertask.o(i._ZN11DeliverTask3runEv) refers to motordriver.o(i._ZN11MotorDriver7disableEv) for MotorDriver::disable()
    delivertask.o(i._ZN11DeliverTask3runEv) refers to event.o(.constdata__ZTV5Event) for vtable for Event
    delivertask.o(i._ZN11DeliverTask4initER5Event) refers to delivertask.o(i._ZNK5Event4arg2Eh) for Event::arg2(unsigned char) const
    delivertask.o(i._ZN11DeliverTask4initER5Event) refers to delivertask.o(i._ZN9PickMotor8instanceEv) for PickMotor::instance()
    delivertask.o(i._ZN11DeliverTask4initER5Event) refers to pickmotor.o(i._ZN9PickMotor5xGoUpEtjj) for PickMotor::xGoUp(unsigned short, unsigned, unsigned)
    delivertask.o(i._ZN11DeliverTask4initER5Event) refers to delivertask.o(i._ZN9RobotArm18instanceEv) for RobotArm1::instance()
    delivertask.o(i._ZN11DeliverTask4initER5Event) refers to robotarm1.o(i._ZN9RobotArm111xRotationToEtjt) for RobotArm1::xRotationTo(unsigned short, unsigned, unsigned short)
    delivertask.o(i._ZN11DeliverTask4initER5Event) refers to delivertask.o(i._ZN9RobotArm28instanceEv) for RobotArm2::instance()
    delivertask.o(i._ZN11DeliverTask4initER5Event) refers to robotarm2.o(i._ZN9RobotArm211xRotationToEtjt) for RobotArm2::xRotationTo(unsigned short, unsigned, unsigned short)
    delivertask.o(i._ZN11DeliverTask4initER5Event) refers to delivertask.o(i._ZN6Fridge8instanceEv) for Fridge::instance()
    delivertask.o(i._ZN11DeliverTask4initER5Event) refers to fridge.o(i._ZN6Fridge6xCloseEtj) for Fridge::xClose(unsigned short, unsigned)
    delivertask.o(i._ZN11DeliverTask7deliverER5Event) refers to delivertask.o(i._ZNK5Event4arg2Eh) for Event::arg2(unsigned char) const
    delivertask.o(i._ZN11DeliverTask7deliverER5Event) refers to delivertask.o(i._ZN11DeliverTask7deliverEhhtR5Event) for DeliverTask::deliver(unsigned char, unsigned char, unsigned short, Event&)
    delivertask.o(i._ZN11DeliverTask7deliverER5Event) refers to mainevent.o(i._ZN8ProtocolC1EPh) for Protocol::Protocol(unsigned char*)
    delivertask.o(i._ZN11DeliverTask7deliverER5Event) refers to bluetoothevent.o(i._ZN8Protocol7append1Eh) for Protocol::append1(unsigned char)
    delivertask.o(i._ZN11DeliverTask7deliverER5Event) refers to protocol.o(i._ZN8Protocol5buildEPh) for Protocol::build(unsigned char*)
    delivertask.o(i._ZN11DeliverTask7deliverER5Event) refers to delivertask.o(i._ZN9RobotArm18instanceEv) for RobotArm1::instance()
    delivertask.o(i._ZN11DeliverTask7deliverER5Event) refers to robotarm1.o(i._ZN9RobotArm111xRotationToEtjt) for RobotArm1::xRotationTo(unsigned short, unsigned, unsigned short)
    delivertask.o(i._ZN11DeliverTask7deliverER5Event) refers to delivertask.o(i._ZN9RobotArm28instanceEv) for RobotArm2::instance()
    delivertask.o(i._ZN11DeliverTask7deliverER5Event) refers to robotarm2.o(i._ZN9RobotArm211xRotationToEtjt) for RobotArm2::xRotationTo(unsigned short, unsigned, unsigned short)
    delivertask.o(i._ZN11DeliverTask7deliverER5Event) refers to delivertask.o(i._ZN9PickMotor8instanceEv) for PickMotor::instance()
    delivertask.o(i._ZN11DeliverTask7deliverER5Event) refers to pickmotor.o(i._ZN9PickMotor5xGoUpEtjj) for PickMotor::xGoUp(unsigned short, unsigned, unsigned)
    delivertask.o(i._ZN11DeliverTask7deliverER5Event) refers to delivertask.o(i._ZN6Fridge8instanceEv) for Fridge::instance()
    delivertask.o(i._ZN11DeliverTask7deliverER5Event) refers to fridge.o(i._ZN6Fridge6xCloseEtj) for Fridge::xClose(unsigned short, unsigned)
    delivertask.o(i._ZN11DeliverTask7deliverEhhtR5Event) refers to bluetoothevent.o(i._ZN11FlashMemory8instanceEv) for FlashMemory::instance()
    delivertask.o(i._ZN11DeliverTask7deliverEhhtR5Event) refers to delivertask.o(i._ZN9PickMotor8instanceEv) for PickMotor::instance()
    delivertask.o(i._ZN11DeliverTask7deliverEhhtR5Event) refers to pickmotor.o(i._ZN9PickMotor5xGoUpEtjj) for PickMotor::xGoUp(unsigned short, unsigned, unsigned)
    delivertask.o(i._ZN11DeliverTask7deliverEhhtR5Event) refers to delivertask.o(i._ZN9RobotArm18instanceEv) for RobotArm1::instance()
    delivertask.o(i._ZN11DeliverTask7deliverEhhtR5Event) refers to robotarm1.o(i._ZN9RobotArm111xRotationToEtjt) for RobotArm1::xRotationTo(unsigned short, unsigned, unsigned short)
    delivertask.o(i._ZN11DeliverTask7deliverEhhtR5Event) refers to delivertask.o(i._ZN6Fridge8instanceEv) for Fridge::instance()
    delivertask.o(i._ZN11DeliverTask7deliverEhhtR5Event) refers to fridge.o(i._ZN6Fridge5xOpenEtj) for Fridge::xOpen(unsigned short, unsigned)
    delivertask.o(i._ZN11DeliverTask7deliverEhhtR5Event) refers to delivertask.o(i._ZN11MotorDriver8instanceEv) for MotorDriver::instance()
    delivertask.o(i._ZN11DeliverTask7deliverEhhtR5Event) refers to motordriver.o(i._ZN11MotorDriver6enableEv) for MotorDriver::enable()
    delivertask.o(i._ZN11DeliverTask7deliverEhhtR5Event) refers to delivertask.o(i._ZN9RobotArm28instanceEv) for RobotArm2::instance()
    delivertask.o(i._ZN11DeliverTask7deliverEhhtR5Event) refers to robotarm2.o(i._ZN9RobotArm211xRotationToEtjt) for RobotArm2::xRotationTo(unsigned short, unsigned, unsigned short)
    delivertask.o(i._ZN11DeliverTask7deliverEhhtR5Event) refers to pickmotor.o(i._ZN9PickMotor17xGoDownOfAbsoluteEtjj) for PickMotor::xGoDownOfAbsolute(unsigned short, unsigned, unsigned)
    delivertask.o(i._ZN11DeliverTask7deliverEhhtR5Event) refers to delivertask.o(i._ZN10Compressor8instanceEv) for Compressor::instance()
    delivertask.o(i._ZN11DeliverTask7deliverEhhtR5Event) refers to pickmotor.o(i._ZN9PickMotor25xGoDownAndCheckCompressorEtjj) for PickMotor::xGoDownAndCheckCompressor(unsigned short, unsigned, unsigned)
    delivertask.o(i._ZN11DeliverTask7deliverEhhtR5Event) refers to delivertask.o(i._ZN10Compressor9isCheckedEv) for Compressor::isChecked()
    delivertask.o(i._ZN11DeliverTask7deliverEhhtR5Event) refers to fridge.o(i._ZN6Fridge6xCloseEtj) for Fridge::xClose(unsigned short, unsigned)
    delivertask.o(i._ZN11DeliverTask7deliverEhhtR5Event) refers to pickmotor.o(i._ZN9PickMotor7xGoDownEtjj) for PickMotor::xGoDown(unsigned short, unsigned, unsigned)
    delivertask.o(i._ZN11DeliverTask7deliverEhhtR5Event) refers to rtx_delay.o(.text.osDelay) for osDelay
    delivertask.o(i._ZN11DeliverTaskC1Ev) refers to task.o(i._ZN4TaskC2EPKcPyj12osPriority_t) for Task::Task__sub_object(const char*, unsigned long long*, unsigned, osPriority_t)
    delivertask.o(i._ZN11DeliverTaskC1Ev) refers to receiver.o(i._ZN8ReceiverC1EPKcPyjj) for Receiver::Receiver(const char*, unsigned long long*, unsigned, unsigned)
    delivertask.o(i._ZN11DeliverTaskC1Ev) refers to delivertask.o(.constdata__ZTV11DeliverTask) for vtable for DeliverTask
    delivertask.o(.ARM.exidx) refers to delivertask.o(i._ZN11DeliverTask13robotArmCheckER5Event) for i._ZN11DeliverTask13robotArmCheckER5Event
    delivertask.o(.ARM.exidx) refers to delivertask.o(i._ZN11DeliverTask7deliverEhhtR5Event) for i._ZN11DeliverTask7deliverEhhtR5Event
    delivertask.o(.ARM.exidx) refers to delivertask.o(i._ZN11DeliverTask7deliverER5Event) for i._ZN11DeliverTask7deliverER5Event
    delivertask.o(.ARM.exidx) refers to delivertask.o(i._ZN11DeliverTask10testFridgeER5Event) for i._ZN11DeliverTask10testFridgeER5Event
    delivertask.o(.ARM.exidx) refers to delivertask.o(i._ZN11DeliverTask13testPickMotorER5Event) for i._ZN11DeliverTask13testPickMotorER5Event
    delivertask.o(.ARM.exidx) refers to delivertask.o(i._ZN11DeliverTask14testCompressorER5Event) for i._ZN11DeliverTask14testCompressorER5Event
    delivertask.o(.ARM.exidx) refers to delivertask.o(i._ZN11DeliverTask12testRobotArmER5Event) for i._ZN11DeliverTask12testRobotArmER5Event
    delivertask.o(.ARM.exidx) refers to delivertask.o(i._ZN11DeliverTask12setGoodsTypeER5Event) for i._ZN11DeliverTask12setGoodsTypeER5Event
    delivertask.o(.ARM.exidx) refers to delivertask.o(i._ZN11DeliverTask4initER5Event) for i._ZN11DeliverTask4initER5Event
    delivertask.o(.ARM.exidx) refers to delivertask.o(i._ZN11DeliverTask12robotArmTestER5Event) for i._ZN11DeliverTask12robotArmTestER5Event
    delivertask.o(.ARM.exidx) refers to delivertask.o(i._ZN11DeliverTask13readGoodsTypeER5Event) for i._ZN11DeliverTask13readGoodsTypeER5Event
    delivertask.o(.ARM.exidx) refers to delivertask.o(i._ZN11DeliverTask16settingGoodsTypeER5Event) for i._ZN11DeliverTask16settingGoodsTypeER5Event
    delivertask.o(.ARM.exidx) refers to delivertask.o(i._ZN11DeliverTask3runEv) for i._ZN11DeliverTask3runEv
    delivertask.o(.ARM.exidx) refers to delivertask.o(i._ZN11DeliverTaskC1Ev) for i._ZN11DeliverTaskC1Ev
    bluetooth.o(i.USART2_IRQHandler) refers to cxa_guard_acquire.o(i.__cxa_guard_acquire) for __cxa_guard_acquire
    bluetooth.o(i.USART2_IRQHandler) refers to bluetooth.o(i._ZN9BluetoothC1Ev) for Bluetooth::Bluetooth()
    bluetooth.o(i.USART2_IRQHandler) refers to rtx_msgqueue.o(.text.osMessageQueuePut) for osMessageQueuePut
    bluetooth.o(i.USART2_IRQHandler) refers to bluetooth.o(.data) for .data
    bluetooth.o(i.USART2_IRQHandler) refers to bluetooth.o(.bss) for .bss
    bluetooth.o(i.USART2_IRQHandler) refers to bluetoothevent.o(.data__ZZN9Bluetooth8instanceEvE3ble) for guard variable for Bluetooth::instance()::ble
    bluetooth.o(i.USART2_IRQHandler) refers to bluetoothevent.o(.bss__ZZN9Bluetooth8instanceEvE3ble) for Bluetooth::instance()::ble
    bluetooth.o(i._ZN9Bluetooth10initDriverEv) refers to bluetooth.o(.bss) for .bss
    bluetooth.o(i._ZN9Bluetooth5writeEPKht) refers to rtx_mutex.o(.text.osMutexAcquire) for osMutexAcquire
    bluetooth.o(i._ZN9Bluetooth5writeEPKht) refers to bluetooth.o(i._ZN9Bluetooth5writeEh) for Bluetooth::write(unsigned char)
    bluetooth.o(i._ZN9Bluetooth5writeEPKht) refers to rtx_mutex.o(.text.osMutexRelease) for osMutexRelease
    bluetooth.o(i._ZN9BluetoothC1Ev) refers to receiver.o(i._ZN8ReceiverC1EPKcPyjj) for Receiver::Receiver(const char*, unsigned long long*, unsigned, unsigned)
    bluetooth.o(i._ZN9BluetoothC1Ev) refers to sender.o(i._ZN6SenderC1EPKc) for Sender::Sender(const char*)
    bluetooth.o(i._ZN9BluetoothC1Ev) refers to bluetooth.o(i._ZN9Bluetooth10initDriverEv) for Bluetooth::initDriver()
    bluetooth.o(i._ZN9BluetoothC1Ev) refers to bluetooth.o(.constdata__ZTV9Bluetooth) for vtable for Bluetooth
    bluetooth.o(i.__sti___13_Bluetooth_cpp_6b41d81d) refers to bluetooth.o(.bss) for .bss
    bluetooth.o(i.__sti___13_Bluetooth_cpp_6b41d81d) refers to bluetoothevent.o(.constdata__ZTV14BluetoothEvent) for vtable for BluetoothEvent
    bluetooth.o(.ARM.exidx) refers to bluetooth.o(i._ZN9Bluetooth10initDriverEv) for i._ZN9Bluetooth10initDriverEv
    bluetooth.o(.ARM.exidx) refers to bluetooth.o(i._ZN9BluetoothC1Ev) for i._ZN9BluetoothC1Ev
    bluetooth.o(.ARM.exidx) refers to bluetooth.o(i.USART2_IRQHandler) for i.USART2_IRQHandler
    bluetooth.o(.ARM.exidx) refers to bluetooth.o(i._ZN9Bluetooth5writeEh) for i._ZN9Bluetooth5writeEh
    bluetooth.o(.ARM.exidx) refers to bluetooth.o(i._ZN9Bluetooth5writeEPKht) for i._ZN9Bluetooth5writeEPKht
    bluetooth.o(.ARM.exidx) refers to bluetooth.o(i.__sti___13_Bluetooth_cpp_6b41d81d) for i.__sti___13_Bluetooth_cpp_6b41d81d
    bluetooth.o(.init_array) refers to bluetooth.o(i.__sti___13_Bluetooth_cpp_6b41d81d) for __sti___13_Bluetooth_cpp_6b41d81d
    bluetooth.o(.init_array) refers to init_aeabi.o(.text) for __cpp_initialize__aeabi_
    compressor.o(i._ZN10Compressor12xWaitDropOutEt) refers to cxa_guard_acquire.o(i.__cxa_guard_acquire) for __cxa_guard_acquire
    compressor.o(i._ZN10Compressor12xWaitDropOutEt) refers to positionswitch.o(i._ZN14PositionSwitchC1Ev) for PositionSwitch::PositionSwitch()
    compressor.o(i._ZN10Compressor12xWaitDropOutEt) refers to positionswitch.o(i._ZN14PositionSwitch9xGetValueEv) for PositionSwitch::xGetValue()
    compressor.o(i._ZN10Compressor12xWaitDropOutEt) refers to rtx_delay.o(.text.osDelay) for osDelay
    compressor.o(i._ZN10Compressor12xWaitDropOutEt) refers to boottask.o(.data__ZZN14PositionSwitch8instanceEvE8instance) for guard variable for PositionSwitch::instance()::instance
    compressor.o(i._ZN10Compressor12xWaitDropOutEt) refers to boottask.o(.bss__ZZN14PositionSwitch8instanceEvE8instance) for PositionSwitch::instance()::instance
    compressor.o(.ARM.exidx) refers to compressor.o(i._ZN10Compressor12xWaitDropOutEt) for i._ZN10Compressor12xWaitDropOutEt
    compressor.o(.ARM.exidx) refers to compressor.o(i._ZN10CompressorC1Ev) for i._ZN10CompressorC1Ev
    ds18b20.o(i._ZN7Ds18b2010vWriteByteEh) refers to systimer.o(i._ZN8SysTimer8vDelayUsEt) for SysTimer::vDelayUs(unsigned short)
    ds18b20.o(i._ZN7Ds18b2012xCheckDeviceEv) refers to systimer.o(i._ZN8SysTimer8vDelayUsEt) for SysTimer::vDelayUs(unsigned short)
    ds18b20.o(i._ZN7Ds18b206vResetEv) refers to systimer.o(i._ZN8SysTimer8vDelayUsEt) for SysTimer::vDelayUs(unsigned short)
    ds18b20.o(i._ZN7Ds18b206vStartEv) refers to ds18b20.o(i._ZN7Ds18b206vResetEv) for Ds18b20::vReset()
    ds18b20.o(i._ZN7Ds18b206vStartEv) refers to ds18b20.o(i._ZN7Ds18b2012xCheckDeviceEv) for Ds18b20::xCheckDevice()
    ds18b20.o(i._ZN7Ds18b206vStartEv) refers to ds18b20.o(i._ZN7Ds18b2010vWriteByteEh) for Ds18b20::vWriteByte(unsigned char)
    ds18b20.o(i._ZN7Ds18b208xReadBitEv) refers to systimer.o(i._ZN8SysTimer8vDelayUsEt) for SysTimer::vDelayUs(unsigned short)
    ds18b20.o(i._ZN7Ds18b209xGetValueEv) refers to ds18b20.o(i._ZN7Ds18b206vStartEv) for Ds18b20::vStart()
    ds18b20.o(i._ZN7Ds18b209xGetValueEv) refers to ds18b20.o(i._ZN7Ds18b206vResetEv) for Ds18b20::vReset()
    ds18b20.o(i._ZN7Ds18b209xGetValueEv) refers to ds18b20.o(i._ZN7Ds18b2012xCheckDeviceEv) for Ds18b20::xCheckDevice()
    ds18b20.o(i._ZN7Ds18b209xGetValueEv) refers to ds18b20.o(i._ZN7Ds18b2010vWriteByteEh) for Ds18b20::vWriteByte(unsigned char)
    ds18b20.o(i._ZN7Ds18b209xGetValueEv) refers to ds18b20.o(i._ZN7Ds18b209xReadByteEv) for Ds18b20::xReadByte()
    ds18b20.o(i._ZN7Ds18b209xReadByteEv) refers to ds18b20.o(i._ZN7Ds18b208xReadBitEv) for Ds18b20::xReadBit()
    ds18b20.o(.ARM.exidx) refers to ds18b20.o(i._ZN7Ds18b208xReadBitEv) for i._ZN7Ds18b208xReadBitEv
    ds18b20.o(.ARM.exidx) refers to ds18b20.o(i._ZN7Ds18b209xReadByteEv) for i._ZN7Ds18b209xReadByteEv
    ds18b20.o(.ARM.exidx) refers to ds18b20.o(i._ZN7Ds18b2010vWriteByteEh) for i._ZN7Ds18b2010vWriteByteEh
    ds18b20.o(.ARM.exidx) refers to ds18b20.o(i._ZN7Ds18b2012xCheckDeviceEv) for i._ZN7Ds18b2012xCheckDeviceEv
    ds18b20.o(.ARM.exidx) refers to ds18b20.o(i._ZN7Ds18b206vResetEv) for i._ZN7Ds18b206vResetEv
    ds18b20.o(.ARM.exidx) refers to ds18b20.o(i._ZN7Ds18b206vStartEv) for i._ZN7Ds18b206vStartEv
    ds18b20.o(.ARM.exidx) refers to ds18b20.o(i._ZN7Ds18b209xGetValueEv) for i._ZN7Ds18b209xGetValueEv
    ds18b20.o(.ARM.exidx) refers to ds18b20.o(i._ZN7Ds18b20C1Ev) for i._ZN7Ds18b20C1Ev
    flashmemory.o(i._ZN11FlashMemory10vWriteDataEjPKhj) refers to flashmemory.o(i._ZN11FlashMemory12vPageProgramEjPKhj) for FlashMemory::vPageProgram(unsigned, const unsigned char*, unsigned)
    flashmemory.o(i._ZN11FlashMemory12vPageProgramEjPKhj) refers to flashmemory.o(i._ZN11FlashMemory12vWriteEnableEv) for FlashMemory::vWriteEnable()
    flashmemory.o(i._ZN11FlashMemory12vPageProgramEjPKhj) refers to flashmemory.o(i._ZN11FlashMemory14xTranslateByteEh) for FlashMemory::xTranslateByte(unsigned char)
    flashmemory.o(i._ZN11FlashMemory12vPageProgramEjPKhj) refers to rtx_delay.o(.text.osDelay) for osDelay
    flashmemory.o(i._ZN11FlashMemory12vPageProgramEjPKhj) refers to flashmemory.o(i._ZN11FlashMemory12xQueryStatusEv) for FlashMemory::xQueryStatus()
    flashmemory.o(i._ZN11FlashMemory12vSectorEarseEj) refers to flashmemory.o(i._ZN11FlashMemory12vWriteEnableEv) for FlashMemory::vWriteEnable()
    flashmemory.o(i._ZN11FlashMemory12vSectorEarseEj) refers to flashmemory.o(i._ZN11FlashMemory14xTranslateByteEh) for FlashMemory::xTranslateByte(unsigned char)
    flashmemory.o(i._ZN11FlashMemory12vSectorEarseEj) refers to rtx_delay.o(.text.osDelay) for osDelay
    flashmemory.o(i._ZN11FlashMemory12vSectorEarseEj) refers to flashmemory.o(i._ZN11FlashMemory12xQueryStatusEv) for FlashMemory::xQueryStatus()
    flashmemory.o(i._ZN11FlashMemory12vWriteEnableEv) refers to flashmemory.o(i._ZN11FlashMemory14xTranslateByteEh) for FlashMemory::xTranslateByte(unsigned char)
    flashmemory.o(i._ZN11FlashMemory12xQueryStatusEv) refers to flashmemory.o(i._ZN11FlashMemory14xTranslateByteEh) for FlashMemory::xTranslateByte(unsigned char)
    flashmemory.o(i._ZN11FlashMemory6xGetIdEv) refers to flashmemory.o(i._ZN11FlashMemory14xTranslateByteEh) for FlashMemory::xTranslateByte(unsigned char)
    flashmemory.o(i._ZN11FlashMemory9vReadDataEjPhj) refers to flashmemory.o(i._ZN11FlashMemory14xTranslateByteEh) for FlashMemory::xTranslateByte(unsigned char)
    flashmemory.o(i._ZN11FlashMemoryC1Ev) refers to flashmemory.o(i._ZN11FlashMemory16initSpiInterfaceEv) for FlashMemory::initSpiInterface()
    flashmemory.o(i._ZN11FlashMemoryC1Ev) refers to flashmemory.o(i._ZN11FlashMemory9vReadDataEjPhj) for FlashMemory::vReadData(unsigned, unsigned char*, unsigned)
    flashmemory.o(.ARM.exidx) refers to flashmemory.o(i._ZN11FlashMemory14xTranslateByteEh) for i._ZN11FlashMemory14xTranslateByteEh
    flashmemory.o(.ARM.exidx) refers to flashmemory.o(i._ZN11FlashMemory9vReadDataEjPhj) for i._ZN11FlashMemory9vReadDataEjPhj
    flashmemory.o(.ARM.exidx) refers to flashmemory.o(i._ZN11FlashMemory12xQueryStatusEv) for i._ZN11FlashMemory12xQueryStatusEv
    flashmemory.o(.ARM.exidx) refers to flashmemory.o(i._ZN11FlashMemory12vWriteEnableEv) for i._ZN11FlashMemory12vWriteEnableEv
    flashmemory.o(.ARM.exidx) refers to flashmemory.o(i._ZN11FlashMemory12vPageProgramEjPKhj) for i._ZN11FlashMemory12vPageProgramEjPKhj
    flashmemory.o(.ARM.exidx) refers to flashmemory.o(i._ZN11FlashMemory10vWriteDataEjPKhj) for i._ZN11FlashMemory10vWriteDataEjPKhj
    flashmemory.o(.ARM.exidx) refers to flashmemory.o(i._ZN11FlashMemory12vSectorEarseEj) for i._ZN11FlashMemory12vSectorEarseEj
    flashmemory.o(.ARM.exidx) refers to flashmemory.o(i._ZN11FlashMemory6xGetIdEv) for i._ZN11FlashMemory6xGetIdEv
    flashmemory.o(.ARM.exidx) refers to flashmemory.o(i._ZN11FlashMemory16initSpiInterfaceEv) for i._ZN11FlashMemory16initSpiInterfaceEv
    flashmemory.o(.ARM.exidx) refers to flashmemory.o(i._ZN11FlashMemoryC1Ev) for i._ZN11FlashMemoryC1Ev
    fridge.o(i._ZN6Fridge5xOpenEtj) refers to fridge.o(i._ZN6Fridge6isOpenEv) for Fridge::isOpen()
    fridge.o(i._ZN6Fridge5xOpenEtj) refers to delivertask.o(i._ZN11MotorDriver8instanceEv) for MotorDriver::instance()
    fridge.o(i._ZN6Fridge5xOpenEtj) refers to motordriver.o(i._ZN11MotorDriver6enableEv) for MotorDriver::enable()
    fridge.o(i._ZN6Fridge5xOpenEtj) refers to fridge.o(i._ZN6Fridge7vSetDirENS_3DirE) for Fridge::vSetDir(Fridge::Dir)
    fridge.o(i._ZN6Fridge5xOpenEtj) refers to rtx_delay.o(.text.osDelay) for osDelay
    fridge.o(i._ZN6Fridge5xOpenEtj) refers to logevent.o(i._ZN7LogUart8instanceEv) for LogUart::instance()
    fridge.o(i._ZN6Fridge5xOpenEtj) refers to baseoutput.o(i._ZN10BaseOutput6formatEPKcz) for BaseOutput::format(const char*, ...)
    fridge.o(i._ZN6Fridge6xCloseEtj) refers to fridge.o(i._ZN6Fridge7isCloseEv) for Fridge::isClose()
    fridge.o(i._ZN6Fridge6xCloseEtj) refers to delivertask.o(i._ZN11MotorDriver8instanceEv) for MotorDriver::instance()
    fridge.o(i._ZN6Fridge6xCloseEtj) refers to motordriver.o(i._ZN11MotorDriver6enableEv) for MotorDriver::enable()
    fridge.o(i._ZN6Fridge6xCloseEtj) refers to fridge.o(i._ZN6Fridge7vSetDirENS_3DirE) for Fridge::vSetDir(Fridge::Dir)
    fridge.o(i._ZN6Fridge6xCloseEtj) refers to rtx_delay.o(.text.osDelay) for osDelay
    fridge.o(i._ZN6Fridge6xCloseEtj) refers to logevent.o(i._ZN7LogUart8instanceEv) for LogUart::instance()
    fridge.o(i._ZN6Fridge6xCloseEtj) refers to baseoutput.o(i._ZN10BaseOutput6formatEPKcz) for BaseOutput::format(const char*, ...)
    fridge.o(i._ZN6FridgeC1Ev) refers to sender.o(i._ZN6SenderC1EPKc) for Sender::Sender(const char*)
    fridge.o(i._ZN6FridgeC1Ev) refers to fridge.o(i._ZN6Fridge12initMotoGpioEv) for Fridge::initMotoGpio()
    fridge.o(i._ZN6FridgeC1Ev) refers to fridge.o(i._ZN6Fridge14initMotoDriverEv) for Fridge::initMotoDriver()
    fridge.o(i._ZN6FridgeC1Ev) refers to fridge.o(i._ZN6Fridge15initCounterGpioEv) for Fridge::initCounterGpio()
    fridge.o(i._ZN6FridgeC1Ev) refers to fridge.o(i._ZN6Fridge17initCounterDriverEv) for Fridge::initCounterDriver()
    fridge.o(i._ZN6FridgeC1Ev) refers to fridge.o(i._ZN6Fridge7vSetDirENS_3DirE) for Fridge::vSetDir(Fridge::Dir)
    fridge.o(.ARM.exidx) refers to fridge.o(i._ZN6Fridge7vSetDirENS_3DirE) for i._ZN6Fridge7vSetDirENS_3DirE
    fridge.o(.ARM.exidx) refers to fridge.o(i._ZN6Fridge5xOpenEtj) for i._ZN6Fridge5xOpenEtj
    fridge.o(.ARM.exidx) refers to fridge.o(i._ZN6Fridge6xCloseEtj) for i._ZN6Fridge6xCloseEtj
    fridge.o(.ARM.exidx) refers to fridge.o(i._ZN6Fridge17initCounterDriverEv) for i._ZN6Fridge17initCounterDriverEv
    fridge.o(.ARM.exidx) refers to fridge.o(i._ZN6Fridge15initCounterGpioEv) for i._ZN6Fridge15initCounterGpioEv
    fridge.o(.ARM.exidx) refers to fridge.o(i._ZN6Fridge14initMotoDriverEv) for i._ZN6Fridge14initMotoDriverEv
    fridge.o(.ARM.exidx) refers to fridge.o(i._ZN6Fridge12initMotoGpioEv) for i._ZN6Fridge12initMotoGpioEv
    fridge.o(.ARM.exidx) refers to fridge.o(i._ZN6FridgeC1Ev) for i._ZN6FridgeC1Ev
    loguart.o(i.UART5_IRQHandler) refers to cxa_guard_acquire.o(i.__cxa_guard_acquire) for __cxa_guard_acquire
    loguart.o(i.UART5_IRQHandler) refers to loguart.o(i._ZN7LogUartC1Ev) for LogUart::LogUart()
    loguart.o(i.UART5_IRQHandler) refers to rtx_msgqueue.o(.text.osMessageQueuePut) for osMessageQueuePut
    loguart.o(i.UART5_IRQHandler) refers to loguart.o(.data) for .data
    loguart.o(i.UART5_IRQHandler) refers to loguart.o(.bss) for .bss
    loguart.o(i.UART5_IRQHandler) refers to logevent.o(.data__ZZN7LogUart8instanceEvE4uart) for guard variable for LogUart::instance()::uart
    loguart.o(i.UART5_IRQHandler) refers to logevent.o(.bss__ZZN7LogUart8instanceEvE4uart) for LogUart::instance()::uart
    loguart.o(i._ZN7LogUart5writeEPKht) refers to rtx_mutex.o(.text.osMutexAcquire) for osMutexAcquire
    loguart.o(i._ZN7LogUart5writeEPKht) refers to loguart.o(i._ZN7LogUart5writeEh) for LogUart::write(unsigned char)
    loguart.o(i._ZN7LogUart5writeEPKht) refers to rtx_mutex.o(.text.osMutexRelease) for osMutexRelease
    loguart.o(i._ZN7LogUartC1Ev) refers to sender.o(i._ZN6SenderC1EPKc) for Sender::Sender(const char*)
    loguart.o(i._ZN7LogUartC1Ev) refers to receiver.o(i._ZN8ReceiverC1EPKcPyjj) for Receiver::Receiver(const char*, unsigned long long*, unsigned, unsigned)
    loguart.o(i._ZN7LogUartC1Ev) refers to loguart.o(.constdata__ZTV7LogUart) for vtable for LogUart
    loguart.o(i._ZN7LogUartC1Ev) refers to loguart.o(.bss) for .bss
    loguart.o(i.__sti___11_LogUart_cpp_f947086d) refers to loguart.o(.bss) for .bss
    loguart.o(i.__sti___11_LogUart_cpp_f947086d) refers to logevent.o(.constdata__ZTV8LogEvent) for vtable for LogEvent
    loguart.o(.ARM.exidx) refers to loguart.o(i._ZN7LogUartC1Ev) for i._ZN7LogUartC1Ev
    loguart.o(.ARM.exidx) refers to loguart.o(i.UART5_IRQHandler) for i.UART5_IRQHandler
    loguart.o(.ARM.exidx) refers to loguart.o(i._ZN7LogUart5writeEh) for i._ZN7LogUart5writeEh
    loguart.o(.ARM.exidx) refers to loguart.o(i._ZN7LogUart5writeEPKht) for i._ZN7LogUart5writeEPKht
    loguart.o(.ARM.exidx) refers to loguart.o(i.__sti___11_LogUart_cpp_f947086d) for i.__sti___11_LogUart_cpp_f947086d
    loguart.o(.init_array) refers to loguart.o(i.__sti___11_LogUart_cpp_f947086d) for __sti___11_LogUart_cpp_f947086d
    loguart.o(.init_array) refers to init_aeabi.o(.text) for __cpp_initialize__aeabi_
    mainuart.o(i.USART3_IRQHandler) refers to cxa_guard_acquire.o(i.__cxa_guard_acquire) for __cxa_guard_acquire
    mainuart.o(i.USART3_IRQHandler) refers to mainuart.o(i._ZN8MainUartC1Ev) for MainUart::MainUart()
    mainuart.o(i.USART3_IRQHandler) refers to rtx_msgqueue.o(.text.osMessageQueuePut) for osMessageQueuePut
    mainuart.o(i.USART3_IRQHandler) refers to mainuart.o(.data) for .data
    mainuart.o(i.USART3_IRQHandler) refers to mainuart.o(.bss) for .bss
    mainuart.o(i.USART3_IRQHandler) refers to mainevent.o(.data__ZZN8MainUart8instanceEvE4uart) for guard variable for MainUart::instance()::uart
    mainuart.o(i.USART3_IRQHandler) refers to mainevent.o(.bss__ZZN8MainUart8instanceEvE4uart) for MainUart::instance()::uart
    mainuart.o(i._ZN8MainUart5writeEPKht) refers to rtx_mutex.o(.text.osMutexAcquire) for osMutexAcquire
    mainuart.o(i._ZN8MainUart5writeEPKht) refers to mainuart.o(i._ZN8MainUart5writeEh) for MainUart::write(unsigned char)
    mainuart.o(i._ZN8MainUart5writeEPKht) refers to rtx_mutex.o(.text.osMutexRelease) for osMutexRelease
    mainuart.o(i._ZN8MainUartC1Ev) refers to sender.o(i._ZN6SenderC1EPKc) for Sender::Sender(const char*)
    mainuart.o(i._ZN8MainUartC1Ev) refers to receiver.o(i._ZN8ReceiverC1EPKcPyjj) for Receiver::Receiver(const char*, unsigned long long*, unsigned, unsigned)
    mainuart.o(i._ZN8MainUartC1Ev) refers to mainuart.o(.constdata__ZTV8MainUart) for vtable for MainUart
    mainuart.o(i._ZN8MainUartC1Ev) refers to mainuart.o(.bss) for .bss
    mainuart.o(i.__sti___12_MainUart_cpp_f0dc2c7d) refers to mainuart.o(.bss) for .bss
    mainuart.o(i.__sti___12_MainUart_cpp_f0dc2c7d) refers to mainevent.o(.constdata__ZTV9MainEvent) for vtable for MainEvent
    mainuart.o(.ARM.exidx) refers to mainuart.o(i._ZN8MainUartC1Ev) for i._ZN8MainUartC1Ev
    mainuart.o(.ARM.exidx) refers to mainuart.o(i.USART3_IRQHandler) for i.USART3_IRQHandler
    mainuart.o(.ARM.exidx) refers to mainuart.o(i._ZN8MainUart5writeEh) for i._ZN8MainUart5writeEh
    mainuart.o(.ARM.exidx) refers to mainuart.o(i._ZN8MainUart5writeEPKht) for i._ZN8MainUart5writeEPKht
    mainuart.o(.ARM.exidx) refers to mainuart.o(i.__sti___12_MainUart_cpp_f0dc2c7d) for i.__sti___12_MainUart_cpp_f0dc2c7d
    mainuart.o(.init_array) refers to mainuart.o(i.__sti___12_MainUart_cpp_f0dc2c7d) for __sti___12_MainUart_cpp_f0dc2c7d
    mainuart.o(.init_array) refers to init_aeabi.o(.text) for __cpp_initialize__aeabi_
    positionswitch.o(i._ZN14PositionSwitch9xGetValueEv) refers to rtx_mutex.o(.text.osMutexAcquire) for osMutexAcquire
    positionswitch.o(i._ZN14PositionSwitch9xGetValueEv) refers to rtx_mutex.o(.text.osMutexRelease) for osMutexRelease
    positionswitch.o(i._ZN14PositionSwitchC1Ev) refers to sender.o(i._ZN6SenderC1EPKc) for Sender::Sender(const char*)
    positionswitch.o(i._ZN14PositionSwitchC1Ev) refers to positionswitch.o(i._ZN14PositionSwitch9xGetValueEv) for PositionSwitch::xGetValue()
    positionswitch.o(.ARM.exidx) refers to positionswitch.o(i._ZN14PositionSwitch9xGetValueEv) for i._ZN14PositionSwitch9xGetValueEv
    positionswitch.o(.ARM.exidx) refers to positionswitch.o(i._ZN14PositionSwitchC1Ev) for i._ZN14PositionSwitchC1Ev
    robotarm1.o(i._ZN9RobotArm111xRotationToEtjt) refers to robotarm1.o(i._ZN9RobotArm120xGetAbsolutePositionEv) for RobotArm1::xGetAbsolutePosition()
    robotarm1.o(i._ZN9RobotArm111xRotationToEtjt) refers to pidcontrol.o(i._ZN10PIDControl4initEifff) for PIDControl::init(int, float, float, float)
    robotarm1.o(i._ZN9RobotArm111xRotationToEtjt) refers to cxa_guard_acquire.o(i.__cxa_guard_acquire) for __cxa_guard_acquire
    robotarm1.o(i._ZN9RobotArm111xRotationToEtjt) refers to motordriver.o(i._ZN11MotorDriverC1Ev) for MotorDriver::MotorDriver()
    robotarm1.o(i._ZN9RobotArm111xRotationToEtjt) refers to motordriver.o(i._ZN11MotorDriver6enableEv) for MotorDriver::enable()
    robotarm1.o(i._ZN9RobotArm111xRotationToEtjt) refers to rtx_delay.o(.text.osDelay) for osDelay
    robotarm1.o(i._ZN9RobotArm111xRotationToEtjt) refers to robotarm1.o(i._ZN9RobotArm17vSetDirENS_3DirE) for RobotArm1::vSetDir(RobotArm1::Dir)
    robotarm1.o(i._ZN9RobotArm111xRotationToEtjt) refers to pidcontrol.o(i._ZN10PIDControl9nextValueEi) for PIDControl::nextValue(int)
    robotarm1.o(i._ZN9RobotArm111xRotationToEtjt) refers to boottask.o(.data__ZZN11MotorDriver8instanceEvE6driver) for guard variable for MotorDriver::instance()::driver
    robotarm1.o(i._ZN9RobotArm114vInversedBrakeEv) refers to robotarm1.o(i._ZN9RobotArm120xGetAbsolutePositionEv) for RobotArm1::xGetAbsolutePosition()
    robotarm1.o(i._ZN9RobotArm114vInversedBrakeEv) refers to robotarm1.o(i._ZN9RobotArm17vSetDirENS_3DirE) for RobotArm1::vSetDir(RobotArm1::Dir)
    robotarm1.o(i._ZN9RobotArm1C1Ev) refers to sender.o(i._ZN6SenderC1EPKc) for Sender::Sender(const char*)
    robotarm1.o(i._ZN9RobotArm1C1Ev) refers to robotarm1.o(i._ZN9RobotArm112initMotoGpioEv) for RobotArm1::initMotoGpio()
    robotarm1.o(i._ZN9RobotArm1C1Ev) refers to robotarm1.o(i._ZN9RobotArm114initMotoDriverEv) for RobotArm1::initMotoDriver()
    robotarm1.o(i._ZN9RobotArm1C1Ev) refers to robotarm1.o(i._ZN9RobotArm115initCounterGpioEv) for RobotArm1::initCounterGpio()
    robotarm1.o(i._ZN9RobotArm1C1Ev) refers to robotarm1.o(i._ZN9RobotArm117initCounterDriverEv) for RobotArm1::initCounterDriver()
    robotarm1.o(i._ZN9RobotArm1C1Ev) refers to robotarm1.o(i._ZN9RobotArm17vSetDirENS_3DirE) for RobotArm1::vSetDir(RobotArm1::Dir)
    robotarm1.o(i._ZN9RobotArm1C1Ev) refers to cxa_guard_acquire.o(i.__cxa_guard_acquire) for __cxa_guard_acquire
    robotarm1.o(i._ZN9RobotArm1C1Ev) refers to flashmemory.o(i._ZN11FlashMemoryC1Ev) for FlashMemory::FlashMemory()
    robotarm1.o(i._ZN9RobotArm1C1Ev) refers to bluetoothevent.o(.data__ZZN11FlashMemory8instanceEvE1m) for guard variable for FlashMemory::instance()::m
    robotarm1.o(i._ZN9RobotArm1C1Ev) refers to bluetoothevent.o(.bss__ZZN11FlashMemory8instanceEvE1m) for FlashMemory::instance()::m
    robotarm1.o(.ARM.exidx) refers to robotarm1.o(i._ZN9RobotArm17vSetDirENS_3DirE) for i._ZN9RobotArm17vSetDirENS_3DirE
    robotarm1.o(.ARM.exidx) refers to robotarm1.o(i._ZN9RobotArm120xGetAbsolutePositionEv) for i._ZN9RobotArm120xGetAbsolutePositionEv
    robotarm1.o(.ARM.exidx) refers to robotarm1.o(i._ZN9RobotArm111xRotationToEtjt) for i._ZN9RobotArm111xRotationToEtjt
    robotarm1.o(.ARM.exidx) refers to robotarm1.o(i._ZN9RobotArm114vInversedBrakeEv) for i._ZN9RobotArm114vInversedBrakeEv
    robotarm1.o(.ARM.exidx) refers to robotarm1.o(i._ZN9RobotArm117initCounterDriverEv) for i._ZN9RobotArm117initCounterDriverEv
    robotarm1.o(.ARM.exidx) refers to robotarm1.o(i._ZN9RobotArm115initCounterGpioEv) for i._ZN9RobotArm115initCounterGpioEv
    robotarm1.o(.ARM.exidx) refers to robotarm1.o(i._ZN9RobotArm114initMotoDriverEv) for i._ZN9RobotArm114initMotoDriverEv
    robotarm1.o(.ARM.exidx) refers to robotarm1.o(i._ZN9RobotArm112initMotoGpioEv) for i._ZN9RobotArm112initMotoGpioEv
    robotarm1.o(.ARM.exidx) refers to robotarm1.o(i._ZN9RobotArm1C1Ev) for i._ZN9RobotArm1C1Ev
    robotarm2.o(i._ZN9RobotArm211xRotationToEtjt) refers to robotarm2.o(i._ZN9RobotArm220xGetAbsolutePositionEv) for RobotArm2::xGetAbsolutePosition()
    robotarm2.o(i._ZN9RobotArm211xRotationToEtjt) refers to pidcontrol.o(i._ZN10PIDControl4initEifff) for PIDControl::init(int, float, float, float)
    robotarm2.o(i._ZN9RobotArm211xRotationToEtjt) refers to cxa_guard_acquire.o(i.__cxa_guard_acquire) for __cxa_guard_acquire
    robotarm2.o(i._ZN9RobotArm211xRotationToEtjt) refers to motordriver.o(i._ZN11MotorDriverC1Ev) for MotorDriver::MotorDriver()
    robotarm2.o(i._ZN9RobotArm211xRotationToEtjt) refers to motordriver.o(i._ZN11MotorDriver6enableEv) for MotorDriver::enable()
    robotarm2.o(i._ZN9RobotArm211xRotationToEtjt) refers to rtx_delay.o(.text.osDelay) for osDelay
    robotarm2.o(i._ZN9RobotArm211xRotationToEtjt) refers to robotarm2.o(i._ZN9RobotArm27vSetDirENS_3DirE) for RobotArm2::vSetDir(RobotArm2::Dir)
    robotarm2.o(i._ZN9RobotArm211xRotationToEtjt) refers to pidcontrol.o(i._ZN10PIDControl9nextValueEi) for PIDControl::nextValue(int)
    robotarm2.o(i._ZN9RobotArm211xRotationToEtjt) refers to boottask.o(.data__ZZN11MotorDriver8instanceEvE6driver) for guard variable for MotorDriver::instance()::driver
    robotarm2.o(i._ZN9RobotArm214vInversedBrakeEv) refers to robotarm2.o(i._ZN9RobotArm220xGetAbsolutePositionEv) for RobotArm2::xGetAbsolutePosition()
    robotarm2.o(i._ZN9RobotArm214vInversedBrakeEv) refers to robotarm2.o(i._ZN9RobotArm27vSetDirENS_3DirE) for RobotArm2::vSetDir(RobotArm2::Dir)
    robotarm2.o(i._ZN9RobotArm2C1Ev) refers to sender.o(i._ZN6SenderC1EPKc) for Sender::Sender(const char*)
    robotarm2.o(i._ZN9RobotArm2C1Ev) refers to robotarm2.o(i._ZN9RobotArm212initMotoGpioEv) for RobotArm2::initMotoGpio()
    robotarm2.o(i._ZN9RobotArm2C1Ev) refers to robotarm2.o(i._ZN9RobotArm215initCounterGpioEv) for RobotArm2::initCounterGpio()
    robotarm2.o(i._ZN9RobotArm2C1Ev) refers to robotarm2.o(i._ZN9RobotArm217initCounterDriverEv) for RobotArm2::initCounterDriver()
    robotarm2.o(i._ZN9RobotArm2C1Ev) refers to robotarm2.o(i._ZN9RobotArm27vSetDirENS_3DirE) for RobotArm2::vSetDir(RobotArm2::Dir)
    robotarm2.o(i._ZN9RobotArm2C1Ev) refers to cxa_guard_acquire.o(i.__cxa_guard_acquire) for __cxa_guard_acquire
    robotarm2.o(i._ZN9RobotArm2C1Ev) refers to flashmemory.o(i._ZN11FlashMemoryC1Ev) for FlashMemory::FlashMemory()
    robotarm2.o(i._ZN9RobotArm2C1Ev) refers to bluetoothevent.o(.data__ZZN11FlashMemory8instanceEvE1m) for guard variable for FlashMemory::instance()::m
    robotarm2.o(i._ZN9RobotArm2C1Ev) refers to bluetoothevent.o(.bss__ZZN11FlashMemory8instanceEvE1m) for FlashMemory::instance()::m
    robotarm2.o(.ARM.exidx) refers to robotarm2.o(i._ZN9RobotArm27vSetDirENS_3DirE) for i._ZN9RobotArm27vSetDirENS_3DirE
    robotarm2.o(.ARM.exidx) refers to robotarm2.o(i._ZN9RobotArm220xGetAbsolutePositionEv) for i._ZN9RobotArm220xGetAbsolutePositionEv
    robotarm2.o(.ARM.exidx) refers to robotarm2.o(i._ZN9RobotArm211xRotationToEtjt) for i._ZN9RobotArm211xRotationToEtjt
    robotarm2.o(.ARM.exidx) refers to robotarm2.o(i._ZN9RobotArm214vInversedBrakeEv) for i._ZN9RobotArm214vInversedBrakeEv
    robotarm2.o(.ARM.exidx) refers to robotarm2.o(i._ZN9RobotArm217initCounterDriverEv) for i._ZN9RobotArm217initCounterDriverEv
    robotarm2.o(.ARM.exidx) refers to robotarm2.o(i._ZN9RobotArm215initCounterGpioEv) for i._ZN9RobotArm215initCounterGpioEv
    robotarm2.o(.ARM.exidx) refers to robotarm2.o(i._ZN9RobotArm214initMotoDriverEv) for i._ZN9RobotArm214initMotoDriverEv
    robotarm2.o(.ARM.exidx) refers to robotarm2.o(i._ZN9RobotArm212initMotoGpioEv) for i._ZN9RobotArm212initMotoGpioEv
    robotarm2.o(.ARM.exidx) refers to robotarm2.o(i._ZN9RobotArm2C1Ev) for i._ZN9RobotArm2C1Ev
    systimer.o(.ARM.exidx) refers to systimer.o(i._ZN8SysTimer5vInitEv) for i._ZN8SysTimer5vInitEv
    systimer.o(.ARM.exidx) refers to systimer.o(i._ZN8SysTimer8vDelayUsEt) for i._ZN8SysTimer8vDelayUsEt
    pickmotor.o(i._ZN9PickMotor17xGoDownOfAbsoluteEtjj) refers to pickmotor.o(i._ZN9PickMotor5xGoUpEtjj) for PickMotor::xGoUp(unsigned short, unsigned, unsigned)
    pickmotor.o(i._ZN9PickMotor17xGoDownOfAbsoluteEtjj) refers to pickmotor.o(i._ZN9PickMotor7xGoDownEtjj) for PickMotor::xGoDown(unsigned short, unsigned, unsigned)
    pickmotor.o(i._ZN9PickMotor25xGoDownAndCheckCompressorEtjj) refers to delivertask.o(i._ZN11MotorDriver8instanceEv) for MotorDriver::instance()
    pickmotor.o(i._ZN9PickMotor25xGoDownAndCheckCompressorEtjj) refers to motordriver.o(i._ZN11MotorDriver6enableEv) for MotorDriver::enable()
    pickmotor.o(i._ZN9PickMotor25xGoDownAndCheckCompressorEtjj) refers to pickmotor.o(i._ZN9PickMotor7vSetDirENS_3DirE) for PickMotor::vSetDir(PickMotor::Dir)
    pickmotor.o(i._ZN9PickMotor25xGoDownAndCheckCompressorEtjj) refers to rtx_delay.o(.text.osDelay) for osDelay
    pickmotor.o(i._ZN9PickMotor25xGoDownAndCheckCompressorEtjj) refers to pickmotor.o(i._ZN9PickMotor9isCheckedEv) for PickMotor::isChecked()
    pickmotor.o(i._ZN9PickMotor5xGoUpEtjj) refers to pickmotor.o(i._ZN9PickMotor5isTopEv) for PickMotor::isTop()
    pickmotor.o(i._ZN9PickMotor5xGoUpEtjj) refers to delivertask.o(i._ZN11MotorDriver8instanceEv) for MotorDriver::instance()
    pickmotor.o(i._ZN9PickMotor5xGoUpEtjj) refers to motordriver.o(i._ZN11MotorDriver6enableEv) for MotorDriver::enable()
    pickmotor.o(i._ZN9PickMotor5xGoUpEtjj) refers to pickmotor.o(i._ZN9PickMotor7vSetDirENS_3DirE) for PickMotor::vSetDir(PickMotor::Dir)
    pickmotor.o(i._ZN9PickMotor5xGoUpEtjj) refers to rtx_delay.o(.text.osDelay) for osDelay
    pickmotor.o(i._ZN9PickMotor5xGoUpEtjj) refers to logevent.o(i._ZN7LogUart8instanceEv) for LogUart::instance()
    pickmotor.o(i._ZN9PickMotor5xGoUpEtjj) refers to baseoutput.o(i._ZN10BaseOutput6formatEPKcz) for BaseOutput::format(const char*, ...)
    pickmotor.o(i._ZN9PickMotor7xGoDownEtjj) refers to delivertask.o(i._ZN11MotorDriver8instanceEv) for MotorDriver::instance()
    pickmotor.o(i._ZN9PickMotor7xGoDownEtjj) refers to motordriver.o(i._ZN11MotorDriver6enableEv) for MotorDriver::enable()
    pickmotor.o(i._ZN9PickMotor7xGoDownEtjj) refers to pickmotor.o(i._ZN9PickMotor7vSetDirENS_3DirE) for PickMotor::vSetDir(PickMotor::Dir)
    pickmotor.o(i._ZN9PickMotor7xGoDownEtjj) refers to rtx_delay.o(.text.osDelay) for osDelay
    pickmotor.o(i._ZN9PickMotor7xGoDownEtjj) refers to logevent.o(i._ZN7LogUart8instanceEv) for LogUart::instance()
    pickmotor.o(i._ZN9PickMotor7xGoDownEtjj) refers to baseoutput.o(i._ZN10BaseOutput6formatEPKcz) for BaseOutput::format(const char*, ...)
    pickmotor.o(i._ZN9PickMotorC1Ev) refers to sender.o(i._ZN6SenderC1EPKc) for Sender::Sender(const char*)
    pickmotor.o(i._ZN9PickMotorC1Ev) refers to pickmotor.o(i._ZN9PickMotor12initMotoGpioEv) for PickMotor::initMotoGpio()
    pickmotor.o(i._ZN9PickMotorC1Ev) refers to pickmotor.o(i._ZN9PickMotor14initMotoDriverEv) for PickMotor::initMotoDriver()
    pickmotor.o(i._ZN9PickMotorC1Ev) refers to pickmotor.o(i._ZN9PickMotor15initCounterGpioEv) for PickMotor::initCounterGpio()
    pickmotor.o(i._ZN9PickMotorC1Ev) refers to pickmotor.o(i._ZN9PickMotor17initCounterDriverEv) for PickMotor::initCounterDriver()
    pickmotor.o(i._ZN9PickMotorC1Ev) refers to pickmotor.o(i._ZN9PickMotor5xGoUpEtjj) for PickMotor::xGoUp(unsigned short, unsigned, unsigned)
    pickmotor.o(i._ZN9PickMotorC1Ev) refers to pickmotor.o(i._ZN9PickMotor7vSetDirENS_3DirE) for PickMotor::vSetDir(PickMotor::Dir)
    pickmotor.o(.ARM.exidx) refers to pickmotor.o(i._ZN9PickMotor7vSetDirENS_3DirE) for i._ZN9PickMotor7vSetDirENS_3DirE
    pickmotor.o(.ARM.exidx) refers to pickmotor.o(i._ZN9PickMotor5xGoUpEtjj) for i._ZN9PickMotor5xGoUpEtjj
    pickmotor.o(.ARM.exidx) refers to pickmotor.o(i._ZN9PickMotor7xGoDownEtjj) for i._ZN9PickMotor7xGoDownEtjj
    pickmotor.o(.ARM.exidx) refers to pickmotor.o(i._ZN9PickMotor17xGoDownOfAbsoluteEtjj) for i._ZN9PickMotor17xGoDownOfAbsoluteEtjj
    pickmotor.o(.ARM.exidx) refers to pickmotor.o(i._ZN9PickMotor25xGoDownAndCheckCompressorEtjj) for i._ZN9PickMotor25xGoDownAndCheckCompressorEtjj
    pickmotor.o(.ARM.exidx) refers to pickmotor.o(i._ZN9PickMotor17initCounterDriverEv) for i._ZN9PickMotor17initCounterDriverEv
    pickmotor.o(.ARM.exidx) refers to pickmotor.o(i._ZN9PickMotor15initCounterGpioEv) for i._ZN9PickMotor15initCounterGpioEv
    pickmotor.o(.ARM.exidx) refers to pickmotor.o(i._ZN9PickMotor14initMotoDriverEv) for i._ZN9PickMotor14initMotoDriverEv
    pickmotor.o(.ARM.exidx) refers to pickmotor.o(i._ZN9PickMotor12initMotoGpioEv) for i._ZN9PickMotor12initMotoGpioEv
    pickmotor.o(.ARM.exidx) refers to pickmotor.o(i._ZN9PickMotorC1Ev) for i._ZN9PickMotorC1Ev
    led.o(i._ZN3Led5blinkEv) refers to rtx_delay.o(.text.osDelay) for osDelay
    led.o(.ARM.exidx) refers to led.o(i._ZN3Led5blinkEv) for i._ZN3Led5blinkEv
    led.o(.ARM.exidx) refers to led.o(i._ZN3LedC1Ev) for i._ZN3LedC1Ev
    motordriver.o(i._Z12vDrv8704Initv) refers to motordriver.o(i._Z8vSpiInitv) for vSpiInit()
    motordriver.o(i._Z13vDrv8704Resetv) refers to rtx_delay.o(.text.osDelay) for osDelay
    motordriver.o(i._Z13vDrv8704Resetv) refers to motordriver.o(i._Z9vSpiWriteht) for vSpiWrite(unsigned char, unsigned short)
    motordriver.o(i._ZN11MotorDriver5clearEv) refers to motordriver.o(i._Z9vSpiWriteht) for vSpiWrite(unsigned char, unsigned short)
    motordriver.o(i._ZN11MotorDriver6enableEv) refers to rtx_delay.o(.text.osDelay) for osDelay
    motordriver.o(i._ZN11MotorDriver6enableEv) refers to motordriver.o(i._Z9vSpiWriteht) for vSpiWrite(unsigned char, unsigned short)
    motordriver.o(i._ZN11MotorDriverC1Ev) refers to motordriver.o(i._Z12vDrv8704Initv) for vDrv8704Init()
    motordriver.o(.ARM.exidx) refers to motordriver.o(i._Z9vSpiWriteht) for i._Z9vSpiWriteht
    motordriver.o(.ARM.exidx) refers to motordriver.o(i._Z8vSpiInitv) for i._Z8vSpiInitv
    motordriver.o(.ARM.exidx) refers to motordriver.o(i._Z13vDrv8704Resetv) for i._Z13vDrv8704Resetv
    motordriver.o(.ARM.exidx) refers to motordriver.o(i._Z12vDrv8704Initv) for i._Z12vDrv8704Initv
    motordriver.o(.ARM.exidx) refers to motordriver.o(i._ZN11MotorDriver6enableEv) for i._ZN11MotorDriver6enableEv
    motordriver.o(.ARM.exidx) refers to motordriver.o(i._ZN11MotorDriver7disableEv) for i._ZN11MotorDriver7disableEv
    motordriver.o(.ARM.exidx) refers to motordriver.o(i._ZN11MotorDriver5clearEv) for i._ZN11MotorDriver5clearEv
    motordriver.o(.ARM.exidx) refers to motordriver.o(i._ZN11MotorDriverC1Ev) for i._ZN11MotorDriverC1Ev
    elock.o(.ARM.exidx) refers to elock.o(i._ZN5ELock5vInitEv) for i._ZN5ELock5vInitEv
    pidcontrol.o(.ARM.exidx) refers to pidcontrol.o(i._ZN10PIDControl4initEifff) for i._ZN10PIDControl4initEifff
    pidcontrol.o(.ARM.exidx) refers to pidcontrol.o(i._ZN10PIDControl9nextValueEi) for i._ZN10PIDControl9nextValueEi
    pidcontrol.o(.ARM.exidx) refers to pidcontrol.o(i._ZN10PIDControl17nextValueOfFridgeEi) for i._ZN10PIDControl17nextValueOfFridgeEi
    baseprotocol.o(.ARM.exidx) refers to baseprotocol.o(i._ZN12BaseProtocolC1EPhRK5Eventh) for i._ZN12BaseProtocolC1EPhRK5Eventh
    baseprotocol.o(.ARM.exidx) refers to baseprotocol.o(i._ZN12BaseProtocolC1EPhhPKht) for i._ZN12BaseProtocolC1EPhhPKht
    protocol.o(.ARM.exidx) refers to protocol.o(i._ZN8Protocol5writeER10BaseOutputPh) for i._ZN8Protocol5writeER10BaseOutputPh
    protocol.o(.ARM.exidx) refers to protocol.o(i._ZN8Protocol5buildEPh) for i._ZN8Protocol5buildEPh
    otamanager.o(i._ZN10OTAManager13setOTAMessageEj) refers to bluetoothevent.o(i._ZN11FlashMemory8instanceEv) for FlashMemory::instance()
    otamanager.o(i._ZN10OTAManager13setOTAMessageEj) refers to flashmemory.o(i._ZN11FlashMemory12vSectorEarseEj) for FlashMemory::vSectorEarse(unsigned)
    otamanager.o(i._ZN10OTAManager13setOTAMessageEj) refers to bluetoothevent.o(i._ZN8Protocol7append1Eh) for Protocol::append1(unsigned char)
    otamanager.o(i._ZN10OTAManager13setOTAMessageEj) refers to protocol.o(i._ZN8Protocol5buildEPh) for Protocol::build(unsigned char*)
    otamanager.o(i._ZN10OTAManager13setOTAMessageEj) refers to mainevent.o(i._ZN8MainUart8instanceEv) for MainUart::instance()
    otamanager.o(i._ZN10OTAManager13setOTAMessageEj) refers to flashmemory.o(i._ZN11FlashMemory10vWriteDataEjPKhj) for FlashMemory::vWriteData(unsigned, const unsigned char*, unsigned)
    otamanager.o(i._ZN10OTAManager13setOTAMessageEj) refers to flashmemory.o(i._ZN11FlashMemory9vReadDataEjPhj) for FlashMemory::vReadData(unsigned, unsigned char*, unsigned)
    otamanager.o(i._ZN10OTAManager6xWriteEtPKhj) refers to otamanager.o(i._Z4copyPvPKvj) for copy(void*, const void*, unsigned)
    otamanager.o(i._ZN10OTAManager6xWriteEtPKhj) refers to bluetoothevent.o(i._ZN11FlashMemory8instanceEv) for FlashMemory::instance()
    otamanager.o(i._ZN10OTAManager6xWriteEtPKhj) refers to flashmemory.o(i._ZN11FlashMemory10vWriteDataEjPKhj) for FlashMemory::vWriteData(unsigned, const unsigned char*, unsigned)
    otamanager.o(i._ZN10OTAManager6xWriteEtPKhj) refers to bluetoothevent.o(i._ZN8Protocol7append1Eh) for Protocol::append1(unsigned char)
    otamanager.o(i._ZN10OTAManager6xWriteEtPKhj) refers to protocol.o(i._ZN8Protocol5buildEPh) for Protocol::build(unsigned char*)
    otamanager.o(i._ZN10OTAManager6xWriteEtPKhj) refers to mainevent.o(i._ZN8MainUart8instanceEv) for MainUart::instance()
    otamanager.o(.ARM.exidx) refers to otamanager.o(i._Z4copyPvPKvj) for i._Z4copyPvPKvj
    otamanager.o(.ARM.exidx) refers to otamanager.o(i._ZN10OTAManager6xWriteEtPKhj) for i._ZN10OTAManager6xWriteEtPKhj
    otamanager.o(.ARM.exidx) refers to otamanager.o(i._ZN10OTAManager13setOTAMessageEj) for i._ZN10OTAManager13setOTAMessageEj
    otamanager.o(.ARM.exidx) refers to otamanager.o(i._ZN10OTAManagerC1Ev) for i._ZN10OTAManagerC1Ev
    baseoutput.o(i._ZN10BaseOutput6formatEPKcz) refers to c89vsprintf.o(.text) for __c89vsprintf
    baseoutput.o(.ARM.exidx) refers to baseoutput.o(i._ZN10BaseOutput6formatEPKcz) for i._ZN10BaseOutput6formatEPKcz
    baseoutput.o(.ARM.exidx) refers to baseoutput.o(i._ZN10BaseOutput5buildEPh) for i._ZN10BaseOutput5buildEPh
    rtx_lib.o(i.__user_perthread_libspace) refers to rtx_lib.o(i.os_kernel_is_active) for os_kernel_is_active
    rtx_lib.o(i.__user_perthread_libspace) refers to rtx_thread.o(.text.osThreadGetId) for osThreadGetId
    rtx_lib.o(i.__user_perthread_libspace) refers to rtx_config.o(i.osRtxErrorNotify) for osRtxErrorNotify
    rtx_lib.o(i.__user_perthread_libspace) refers to rtx_lib.o(.bss.os) for .bss.os
    rtx_lib.o(i._mutex_acquire) refers to rtx_lib.o(i.os_kernel_is_active) for os_kernel_is_active
    rtx_lib.o(i._mutex_acquire) refers to rtx_mutex.o(.text.osMutexAcquire) for osMutexAcquire
    rtx_lib.o(i._mutex_free) refers to rtx_mutex.o(.text.osMutexDelete) for osMutexDelete
    rtx_lib.o(i._mutex_initialize) refers to rtx_mutex.o(.text.osMutexNew) for osMutexNew
    rtx_lib.o(i._mutex_initialize) refers to rtx_config.o(i.osRtxErrorNotify) for osRtxErrorNotify
    rtx_lib.o(i._mutex_release) refers to rtx_lib.o(i.os_kernel_is_active) for os_kernel_is_active
    rtx_lib.o(i._mutex_release) refers to rtx_mutex.o(.text.osMutexRelease) for osMutexRelease
    rtx_lib.o(i._platform_post_stackheap_init) refers to rtx_kernel.o(.text.osKernelInitialize) for osKernelInitialize
    rtx_lib.o(i.os_kernel_is_active) refers to rtx_kernel.o(.text.osKernelGetState) for osKernelGetState
    rtx_lib.o(i.os_kernel_is_active) refers to rtx_lib.o(.data) for .data
    rtx_lib.o(.constdata) refers to rtx_lib.o(.bss.os.thread.cb) for os_idle_thread_cb
    rtx_lib.o(.constdata) refers to rtx_lib.o(.bss.os.thread.stack) for os_idle_thread_stack
    rtx_lib.o(.constdata) refers to rtx_lib.o(.bss.os.thread.cb) for os_timer_thread_cb
    rtx_lib.o(.constdata) refers to rtx_lib.o(.bss.os.thread.stack) for os_timer_thread_stack
    rtx_lib.o(.constdata) refers to rtx_lib.o(.bss.os.msgqueue.cb) for os_timer_mq_cb
    rtx_lib.o(.constdata) refers to rtx_lib.o(.bss.os.msgqueue.mem) for os_timer_mq_data
    rtx_lib.o(.data) refers to irq_cm4f.o(.constdata) for irqRtxLib
    rtx_lib.o(.rodata) refers to rtx_lib.o(.bss.os) for os_isr_queue
    rtx_lib.o(.rodata) refers to rtx_lib.o(.bss.os) for os_mem
    rtx_lib.o(.rodata) refers to rtx_lib.o(.constdata) for os_idle_thread_attr
    rtx_lib.o(.rodata) refers to rtx_lib.o(.constdata) for os_timer_thread_attr
    rtx_lib.o(.rodata) refers to rtx_lib.o(.constdata) for os_timer_mq_attr
    rtx_kernel.o(.text.svcRtxKernelInitialize) refers to rtx_kernel.o(.data.os) for osRtxInfo
    rtx_kernel.o(.text.svcRtxKernelInitialize) refers to rt_memclr_w.o(.text) for __aeabi_memclr8
    rtx_kernel.o(.text.svcRtxKernelInitialize) refers to rtx_lib.o(.rodata) for osRtxConfig
    rtx_kernel.o(.text.svcRtxKernelInitialize) refers to rtx_memory.o(.text.osRtxMemoryInit) for osRtxMemoryInit
    rtx_kernel.o(.text.svcRtxKernelInitialize) refers to rtx_mempool.o(.text.osRtxMemoryPoolInit) for osRtxMemoryPoolInit
    rtx_kernel.o(.ARM.exidx.text.svcRtxKernelInitialize) refers to rtx_kernel.o(.text.svcRtxKernelInitialize) for [Anonymous Symbol]
    rtx_kernel.o(.text.svcRtxKernelGetInfo) refers to rtx_kernel.o(.rodata.str1.4) for .L.str
    rtx_kernel.o(.text.svcRtxKernelGetInfo) refers to rt_memcpy_v6.o(.text) for __aeabi_memcpy
    rtx_kernel.o(.ARM.exidx.text.svcRtxKernelGetInfo) refers to rtx_kernel.o(.text.svcRtxKernelGetInfo) for [Anonymous Symbol]
    rtx_kernel.o(.text.svcRtxKernelGetState) refers to rtx_kernel.o(.data.os) for osRtxInfo
    rtx_kernel.o(.ARM.exidx.text.svcRtxKernelGetState) refers to rtx_kernel.o(.text.svcRtxKernelGetState) for [Anonymous Symbol]
    rtx_kernel.o(.text.svcRtxKernelStart) refers to rtx_kernel.o(.data.os) for osRtxInfo
    rtx_kernel.o(.text.svcRtxKernelStart) refers to rtx_lib.o(.rodata) for osRtxConfig
    rtx_kernel.o(.text.svcRtxKernelStart) refers to rtx_config.o(i.osRtxIdleThread) for osRtxIdleThread
    rtx_kernel.o(.text.svcRtxKernelStart) refers to rtx_thread.o(.text.svcRtxThreadNew) for svcRtxThreadNew
    rtx_kernel.o(.text.svcRtxKernelStart) refers to rtx_thread.o(.text.osRtxThreadListGet) for osRtxThreadListGet
    rtx_kernel.o(.text.svcRtxKernelStart) refers to rtx_thread.o(.text.osRtxThreadSwitch) for osRtxThreadSwitch
    rtx_kernel.o(.text.svcRtxKernelStart) refers to system_stm32f4xx.o(.data) for SystemCoreClock
    rtx_kernel.o(.text.svcRtxKernelStart) refers to rtx_system.o(.text.osRtxSysTimerSetup) for osRtxSysTimerSetup
    rtx_kernel.o(.text.svcRtxKernelStart) refers to rtx_system.o(.text.osRtxSysTimerEnable) for osRtxSysTimerEnable
    rtx_kernel.o(.ARM.exidx.text.svcRtxKernelStart) refers to rtx_kernel.o(.text.svcRtxKernelStart) for [Anonymous Symbol]
    rtx_kernel.o(.text.svcRtxKernelLock) refers to rtx_kernel.o(.data.os) for osRtxInfo
    rtx_kernel.o(.ARM.exidx.text.svcRtxKernelLock) refers to rtx_kernel.o(.text.svcRtxKernelLock) for [Anonymous Symbol]
    rtx_kernel.o(.text.svcRtxKernelUnlock) refers to rtx_kernel.o(.data.os) for osRtxInfo
    rtx_kernel.o(.ARM.exidx.text.svcRtxKernelUnlock) refers to rtx_kernel.o(.text.svcRtxKernelUnlock) for [Anonymous Symbol]
    rtx_kernel.o(.text.svcRtxKernelRestoreLock) refers to rtx_kernel.o(.data.os) for osRtxInfo
    rtx_kernel.o(.ARM.exidx.text.svcRtxKernelRestoreLock) refers to rtx_kernel.o(.text.svcRtxKernelRestoreLock) for [Anonymous Symbol]
    rtx_kernel.o(.text.svcRtxKernelSuspend) refers to rtx_kernel.o(.data.os) for osRtxInfo
    rtx_kernel.o(.text.svcRtxKernelSuspend) refers to rtx_system.o(.text.osRtxSysTimerDisable) for osRtxSysTimerDisable
    rtx_kernel.o(.ARM.exidx.text.svcRtxKernelSuspend) refers to rtx_kernel.o(.text.svcRtxKernelSuspend) for [Anonymous Symbol]
    rtx_kernel.o(.text.svcRtxKernelResume) refers to rtx_kernel.o(.data.os) for osRtxInfo
    rtx_kernel.o(.text.svcRtxKernelResume) refers to rtx_thread.o(.text.osRtxThreadDelayTick) for osRtxThreadDelayTick
    rtx_kernel.o(.text.svcRtxKernelResume) refers to rtx_timer.o(.text.osRtxTimerTick) for osRtxTimerTick
    rtx_kernel.o(.text.svcRtxKernelResume) refers to rtx_thread.o(.text.osRtxThreadDispatch) for osRtxThreadDispatch
    rtx_kernel.o(.text.svcRtxKernelResume) refers to rtx_system.o(.text.osRtxSysTimerEnable) for osRtxSysTimerEnable
    rtx_kernel.o(.ARM.exidx.text.svcRtxKernelResume) refers to rtx_kernel.o(.text.svcRtxKernelResume) for [Anonymous Symbol]
    rtx_kernel.o(.text.svcRtxKernelGetTickCount) refers to rtx_kernel.o(.data.os) for osRtxInfo
    rtx_kernel.o(.ARM.exidx.text.svcRtxKernelGetTickCount) refers to rtx_kernel.o(.text.svcRtxKernelGetTickCount) for [Anonymous Symbol]
    rtx_kernel.o(.text.svcRtxKernelGetTickFreq) refers to rtx_lib.o(.rodata) for osRtxConfig
    rtx_kernel.o(.ARM.exidx.text.svcRtxKernelGetTickFreq) refers to rtx_kernel.o(.text.svcRtxKernelGetTickFreq) for [Anonymous Symbol]
    rtx_kernel.o(.text.svcRtxKernelGetSysTimerCount) refers to rtx_system.o(.text.osRtxSysTimerGetCount) for osRtxSysTimerGetCount
    rtx_kernel.o(.ARM.exidx.text.svcRtxKernelGetSysTimerCount) refers to rtx_kernel.o(.text.svcRtxKernelGetSysTimerCount) for [Anonymous Symbol]
    rtx_kernel.o(.text.svcRtxKernelGetSysTimerFreq) refers to rtx_system.o(.text.osRtxSysTimerGetFreq) for osRtxSysTimerGetFreq
    rtx_kernel.o(.ARM.exidx.text.svcRtxKernelGetSysTimerFreq) refers to rtx_kernel.o(.text.svcRtxKernelGetSysTimerFreq) for [Anonymous Symbol]
    rtx_kernel.o(.text.osKernelInitialize) refers to rtx_kernel.o(.text.svcRtxKernelInitialize) for svcRtxKernelInitialize
    rtx_kernel.o(.ARM.exidx.text.osKernelInitialize) refers to rtx_kernel.o(.text.osKernelInitialize) for [Anonymous Symbol]
    rtx_kernel.o(.text.osKernelGetInfo) refers to rtx_kernel.o(.rodata.str1.4) for .L.str
    rtx_kernel.o(.text.osKernelGetInfo) refers to rt_memcpy_v6.o(.text) for __aeabi_memcpy
    rtx_kernel.o(.text.osKernelGetInfo) refers to rtx_kernel.o(.text.svcRtxKernelGetInfo) for svcRtxKernelGetInfo
    rtx_kernel.o(.ARM.exidx.text.osKernelGetInfo) refers to rtx_kernel.o(.text.osKernelGetInfo) for [Anonymous Symbol]
    rtx_kernel.o(.text.osKernelGetState) refers to rtx_kernel.o(.data.os) for osRtxInfo
    rtx_kernel.o(.text.osKernelGetState) refers to rtx_kernel.o(.text.svcRtxKernelGetState) for svcRtxKernelGetState
    rtx_kernel.o(.ARM.exidx.text.osKernelGetState) refers to rtx_kernel.o(.text.osKernelGetState) for [Anonymous Symbol]
    rtx_kernel.o(.text.osKernelStart) refers to rtx_kernel.o(.text.svcRtxKernelStart) for svcRtxKernelStart
    rtx_kernel.o(.ARM.exidx.text.osKernelStart) refers to rtx_kernel.o(.text.osKernelStart) for [Anonymous Symbol]
    rtx_kernel.o(.text.osKernelLock) refers to rtx_kernel.o(.text.svcRtxKernelLock) for svcRtxKernelLock
    rtx_kernel.o(.ARM.exidx.text.osKernelLock) refers to rtx_kernel.o(.text.osKernelLock) for [Anonymous Symbol]
    rtx_kernel.o(.text.osKernelUnlock) refers to rtx_kernel.o(.text.svcRtxKernelUnlock) for svcRtxKernelUnlock
    rtx_kernel.o(.ARM.exidx.text.osKernelUnlock) refers to rtx_kernel.o(.text.osKernelUnlock) for [Anonymous Symbol]
    rtx_kernel.o(.text.osKernelRestoreLock) refers to rtx_kernel.o(.text.svcRtxKernelRestoreLock) for svcRtxKernelRestoreLock
    rtx_kernel.o(.ARM.exidx.text.osKernelRestoreLock) refers to rtx_kernel.o(.text.osKernelRestoreLock) for [Anonymous Symbol]
    rtx_kernel.o(.text.osKernelSuspend) refers to rtx_kernel.o(.text.svcRtxKernelSuspend) for svcRtxKernelSuspend
    rtx_kernel.o(.ARM.exidx.text.osKernelSuspend) refers to rtx_kernel.o(.text.osKernelSuspend) for [Anonymous Symbol]
    rtx_kernel.o(.text.osKernelResume) refers to rtx_kernel.o(.text.svcRtxKernelResume) for svcRtxKernelResume
    rtx_kernel.o(.ARM.exidx.text.osKernelResume) refers to rtx_kernel.o(.text.osKernelResume) for [Anonymous Symbol]
    rtx_kernel.o(.text.osKernelGetTickCount) refers to rtx_kernel.o(.text.svcRtxKernelGetTickCount) for svcRtxKernelGetTickCount
    rtx_kernel.o(.ARM.exidx.text.osKernelGetTickCount) refers to rtx_kernel.o(.text.osKernelGetTickCount) for [Anonymous Symbol]
    rtx_kernel.o(.text.osKernelGetTickFreq) refers to rtx_kernel.o(.text.svcRtxKernelGetTickFreq) for svcRtxKernelGetTickFreq
    rtx_kernel.o(.ARM.exidx.text.osKernelGetTickFreq) refers to rtx_kernel.o(.text.osKernelGetTickFreq) for [Anonymous Symbol]
    rtx_kernel.o(.text.osKernelGetSysTimerCount) refers to rtx_system.o(.text.osRtxSysTimerGetCount) for osRtxSysTimerGetCount
    rtx_kernel.o(.text.osKernelGetSysTimerCount) refers to rtx_kernel.o(.text.svcRtxKernelGetSysTimerCount) for svcRtxKernelGetSysTimerCount
    rtx_kernel.o(.ARM.exidx.text.osKernelGetSysTimerCount) refers to rtx_kernel.o(.text.osKernelGetSysTimerCount) for [Anonymous Symbol]
    rtx_kernel.o(.text.osKernelGetSysTimerFreq) refers to rtx_system.o(.text.osRtxSysTimerGetFreq) for osRtxSysTimerGetFreq
    rtx_kernel.o(.text.osKernelGetSysTimerFreq) refers to rtx_kernel.o(.text.svcRtxKernelGetSysTimerFreq) for svcRtxKernelGetSysTimerFreq
    rtx_kernel.o(.ARM.exidx.text.osKernelGetSysTimerFreq) refers to rtx_kernel.o(.text.osKernelGetSysTimerFreq) for [Anonymous Symbol]
    rtx_kernel.o(.data.os) refers to rtx_kernel.o(.rodata.str1.4) for .L.str
    rtx_kernel.o(.data.irqRtxLibRef) refers to irq_cm4f.o(.constdata) for irqRtxLib
    rtx_thread.o(.ARM.exidx.text.osRtxThreadListPut) refers to rtx_thread.o(.text.osRtxThreadListPut) for [Anonymous Symbol]
    rtx_thread.o(.ARM.exidx.text.osRtxThreadListGet) refers to rtx_thread.o(.text.osRtxThreadListGet) for [Anonymous Symbol]
    rtx_thread.o(.ARM.exidx.text.osRtxThreadListRoot) refers to rtx_thread.o(.text.osRtxThreadListRoot) for [Anonymous Symbol]
    rtx_thread.o(.ARM.exidx.text.osRtxThreadListSort) refers to rtx_thread.o(.text.osRtxThreadListSort) for [Anonymous Symbol]
    rtx_thread.o(.ARM.exidx.text.osRtxThreadListRemove) refers to rtx_thread.o(.text.osRtxThreadListRemove) for [Anonymous Symbol]
    rtx_thread.o(.ARM.exidx.text.osRtxThreadListUnlink) refers to rtx_thread.o(.text.osRtxThreadListUnlink) for [Anonymous Symbol]
    rtx_thread.o(.text.osRtxThreadReadyPut) refers to rtx_kernel.o(.data.os) for osRtxInfo
    rtx_thread.o(.ARM.exidx.text.osRtxThreadReadyPut) refers to rtx_thread.o(.text.osRtxThreadReadyPut) for [Anonymous Symbol]
    rtx_thread.o(.text.osRtxThreadDelayInsert) refers to rtx_kernel.o(.data.os) for osRtxInfo
    rtx_thread.o(.ARM.exidx.text.osRtxThreadDelayInsert) refers to rtx_thread.o(.text.osRtxThreadDelayInsert) for [Anonymous Symbol]
    rtx_thread.o(.text.osRtxThreadDelayRemove) refers to rtx_kernel.o(.data.os) for osRtxInfo
    rtx_thread.o(.ARM.exidx.text.osRtxThreadDelayRemove) refers to rtx_thread.o(.text.osRtxThreadDelayRemove) for [Anonymous Symbol]
    rtx_thread.o(.text.osRtxThreadDelayTick) refers to rtx_kernel.o(.data.os) for osRtxInfo
    rtx_thread.o(.ARM.exidx.text.osRtxThreadDelayTick) refers to rtx_thread.o(.text.osRtxThreadDelayTick) for [Anonymous Symbol]
    rtx_thread.o(.ARM.exidx.text.osRtxThreadRegPtr) refers to rtx_thread.o(.text.osRtxThreadRegPtr) for [Anonymous Symbol]
    rtx_thread.o(.text.osRtxThreadBlock) refers to rtx_kernel.o(.data.os) for osRtxInfo
    rtx_thread.o(.ARM.exidx.text.osRtxThreadBlock) refers to rtx_thread.o(.text.osRtxThreadBlock) for [Anonymous Symbol]
    rtx_thread.o(.text.osRtxThreadSwitch) refers to rtx_kernel.o(.data.os) for osRtxInfo
    rtx_thread.o(.text.osRtxThreadSwitch) refers to rtx_thread.o(.text.osRtxThreadStackCheck) for osRtxThreadStackCheck
    rtx_thread.o(.ARM.exidx.text.osRtxThreadSwitch) refers to rtx_thread.o(.text.osRtxThreadSwitch) for [Anonymous Symbol]
    rtx_thread.o(.text.osRtxThreadStackCheck) refers to rtx_kernel.o(.data.os) for osRtxInfo
    rtx_thread.o(.text.osRtxThreadStackCheck) refers to rtx_config.o(i.osRtxErrorNotify) for osRtxErrorNotify
    rtx_thread.o(.ARM.exidx.text.osRtxThreadStackCheck) refers to rtx_thread.o(.text.osRtxThreadStackCheck) for [Anonymous Symbol]
    rtx_thread.o(.text.osRtxThreadDispatch) refers to rtx_kernel.o(.data.os) for osRtxInfo
    rtx_thread.o(.text.osRtxThreadDispatch) refers to rtx_thread.o(.text.osRtxThreadStackCheck) for osRtxThreadStackCheck
    rtx_thread.o(.ARM.exidx.text.osRtxThreadDispatch) refers to rtx_thread.o(.text.osRtxThreadDispatch) for [Anonymous Symbol]
    rtx_thread.o(.text.osRtxThreadWaitExit) refers to rtx_kernel.o(.data.os) for osRtxInfo
    rtx_thread.o(.text.osRtxThreadWaitExit) refers to rtx_thread.o(.text.osRtxThreadDispatch) for osRtxThreadDispatch
    rtx_thread.o(.ARM.exidx.text.osRtxThreadWaitExit) refers to rtx_thread.o(.text.osRtxThreadWaitExit) for [Anonymous Symbol]
    rtx_thread.o(.text.osRtxThreadWaitEnter) refers to rtx_kernel.o(.data.os) for osRtxInfo
    rtx_thread.o(.text.osRtxThreadWaitEnter) refers to rtx_thread.o(.text.osRtxThreadStackCheck) for osRtxThreadStackCheck
    rtx_thread.o(.ARM.exidx.text.osRtxThreadWaitEnter) refers to rtx_thread.o(.text.osRtxThreadWaitEnter) for [Anonymous Symbol]
    rtx_thread.o(.text.osRtxThreadPostProcess) refers to rtx_thread.o(.text.osRtxThreadWaitExit) for osRtxThreadWaitExit
    rtx_thread.o(.ARM.exidx.text.osRtxThreadPostProcess) refers to rtx_thread.o(.text.osRtxThreadPostProcess) for [Anonymous Symbol]
    rtx_thread.o(.text.svcRtxThreadNew) refers to rtx_kernel.o(.data.os) for osRtxInfo
    rtx_thread.o(.text.svcRtxThreadNew) refers to rtx_mempool.o(.text.osRtxMemoryPoolAlloc) for osRtxMemoryPoolAlloc
    rtx_thread.o(.text.svcRtxThreadNew) refers to rtx_memory.o(.text.osRtxMemoryAlloc) for osRtxMemoryAlloc
    rtx_thread.o(.text.svcRtxThreadNew) refers to rtx_lib.o(.rodata) for osRtxConfig
    rtx_thread.o(.text.svcRtxThreadNew) refers to aeabi_memset4.o(.text) for __aeabi_memset4
    rtx_thread.o(.text.svcRtxThreadNew) refers to rt_memclr_w.o(.text) for __aeabi_memclr4
    rtx_thread.o(.text.svcRtxThreadNew) refers to rtx_thread.o(.text.osThreadExit) for osThreadExit
    rtx_thread.o(.text.svcRtxThreadNew) refers to rtx_thread.o(.text.osRtxThreadPostProcess) for osRtxThreadPostProcess
    rtx_thread.o(.text.svcRtxThreadNew) refers to rtx_thread.o(.text.osRtxThreadDispatch) for osRtxThreadDispatch
    rtx_thread.o(.text.svcRtxThreadNew) refers to rtx_mempool.o(.text.osRtxMemoryPoolFree) for osRtxMemoryPoolFree
    rtx_thread.o(.text.svcRtxThreadNew) refers to rtx_memory.o(.text.osRtxMemoryFree) for osRtxMemoryFree
    rtx_thread.o(.ARM.exidx.text.svcRtxThreadNew) refers to rtx_thread.o(.text.svcRtxThreadNew) for [Anonymous Symbol]
    rtx_thread.o(.text.osThreadExit) refers to rtx_thread.o(.text.svcRtxThreadExit) for svcRtxThreadExit
    rtx_thread.o(.ARM.exidx.text.osThreadExit) refers to rtx_thread.o(.text.osThreadExit) for [Anonymous Symbol]
    rtx_thread.o(.ARM.exidx.text.svcRtxThreadGetName) refers to rtx_thread.o(.text.svcRtxThreadGetName) for [Anonymous Symbol]
    rtx_thread.o(.text.svcRtxThreadGetId) refers to rtx_kernel.o(.data.os) for osRtxInfo
    rtx_thread.o(.ARM.exidx.text.svcRtxThreadGetId) refers to rtx_thread.o(.text.svcRtxThreadGetId) for [Anonymous Symbol]
    rtx_thread.o(.ARM.exidx.text.svcRtxThreadGetState) refers to rtx_thread.o(.text.svcRtxThreadGetState) for [Anonymous Symbol]
    rtx_thread.o(.ARM.exidx.text.svcRtxThreadGetStackSize) refers to rtx_thread.o(.text.svcRtxThreadGetStackSize) for [Anonymous Symbol]
    rtx_thread.o(.text.svcRtxThreadGetStackSpace) refers to rtx_lib.o(.rodata) for osRtxConfig
    rtx_thread.o(.ARM.exidx.text.svcRtxThreadGetStackSpace) refers to rtx_thread.o(.text.svcRtxThreadGetStackSpace) for [Anonymous Symbol]
    rtx_thread.o(.text.svcRtxThreadSetPriority) refers to rtx_kernel.o(.data.os) for osRtxInfo
    rtx_thread.o(.text.svcRtxThreadSetPriority) refers to rtx_thread.o(.text.osRtxThreadStackCheck) for osRtxThreadStackCheck
    rtx_thread.o(.ARM.exidx.text.svcRtxThreadSetPriority) refers to rtx_thread.o(.text.svcRtxThreadSetPriority) for [Anonymous Symbol]
    rtx_thread.o(.ARM.exidx.text.svcRtxThreadGetPriority) refers to rtx_thread.o(.text.svcRtxThreadGetPriority) for [Anonymous Symbol]
    rtx_thread.o(.text.svcRtxThreadYield) refers to rtx_kernel.o(.data.os) for osRtxInfo
    rtx_thread.o(.text.svcRtxThreadYield) refers to rtx_thread.o(.text.osRtxThreadStackCheck) for osRtxThreadStackCheck
    rtx_thread.o(.ARM.exidx.text.svcRtxThreadYield) refers to rtx_thread.o(.text.svcRtxThreadYield) for [Anonymous Symbol]
    rtx_thread.o(.text.svcRtxThreadSuspend) refers to rtx_kernel.o(.data.os) for osRtxInfo
    rtx_thread.o(.text.svcRtxThreadSuspend) refers to rtx_thread.o(.text.osRtxThreadStackCheck) for osRtxThreadStackCheck
    rtx_thread.o(.ARM.exidx.text.svcRtxThreadSuspend) refers to rtx_thread.o(.text.svcRtxThreadSuspend) for [Anonymous Symbol]
    rtx_thread.o(.text.svcRtxThreadResume) refers to rtx_kernel.o(.data.os) for osRtxInfo
    rtx_thread.o(.text.svcRtxThreadResume) refers to rtx_thread.o(.text.osRtxThreadDispatch) for osRtxThreadDispatch
    rtx_thread.o(.ARM.exidx.text.svcRtxThreadResume) refers to rtx_thread.o(.text.svcRtxThreadResume) for [Anonymous Symbol]
    rtx_thread.o(.text.svcRtxThreadDetach) refers to rtx_kernel.o(.data.os) for osRtxInfo
    rtx_thread.o(.text.svcRtxThreadDetach) refers to rtx_memory.o(.text.osRtxMemoryFree) for osRtxMemoryFree
    rtx_thread.o(.text.svcRtxThreadDetach) refers to rtx_mempool.o(.text.osRtxMemoryPoolFree) for osRtxMemoryPoolFree
    rtx_thread.o(.ARM.exidx.text.svcRtxThreadDetach) refers to rtx_thread.o(.text.svcRtxThreadDetach) for [Anonymous Symbol]
    rtx_thread.o(.text.svcRtxThreadJoin) refers to rtx_kernel.o(.data.os) for osRtxInfo
    rtx_thread.o(.text.svcRtxThreadJoin) refers to rtx_thread.o(.text.osRtxThreadStackCheck) for osRtxThreadStackCheck
    rtx_thread.o(.text.svcRtxThreadJoin) refers to rtx_memory.o(.text.osRtxMemoryFree) for osRtxMemoryFree
    rtx_thread.o(.text.svcRtxThreadJoin) refers to rtx_mempool.o(.text.osRtxMemoryPoolFree) for osRtxMemoryPoolFree
    rtx_thread.o(.ARM.exidx.text.svcRtxThreadJoin) refers to rtx_thread.o(.text.svcRtxThreadJoin) for [Anonymous Symbol]
    rtx_thread.o(.text.svcRtxThreadExit) refers to rtx_kernel.o(.data.os) for osRtxInfo
    rtx_thread.o(.text.svcRtxThreadExit) refers to rtx_mutex.o(.text.osRtxMutexOwnerRelease) for osRtxMutexOwnerRelease
    rtx_thread.o(.text.svcRtxThreadExit) refers to rtx_thread.o(.text.osRtxThreadWaitExit) for osRtxThreadWaitExit
    rtx_thread.o(.text.svcRtxThreadExit) refers to rtx_thread.o(.text.osRtxThreadStackCheck) for osRtxThreadStackCheck
    rtx_thread.o(.text.svcRtxThreadExit) refers to rtx_memory.o(.text.osRtxMemoryFree) for osRtxMemoryFree
    rtx_thread.o(.text.svcRtxThreadExit) refers to rtx_mempool.o(.text.osRtxMemoryPoolFree) for osRtxMemoryPoolFree
    rtx_thread.o(.ARM.exidx.text.svcRtxThreadExit) refers to rtx_thread.o(.text.svcRtxThreadExit) for [Anonymous Symbol]
    rtx_thread.o(.text.svcRtxThreadTerminate) refers to rtx_kernel.o(.data.os) for osRtxInfo
    rtx_thread.o(.text.svcRtxThreadTerminate) refers to rtx_mutex.o(.text.osRtxMutexOwnerRelease) for osRtxMutexOwnerRelease
    rtx_thread.o(.text.svcRtxThreadTerminate) refers to rtx_thread.o(.text.osRtxThreadWaitExit) for osRtxThreadWaitExit
    rtx_thread.o(.text.svcRtxThreadTerminate) refers to rtx_thread.o(.text.osRtxThreadStackCheck) for osRtxThreadStackCheck
    rtx_thread.o(.text.svcRtxThreadTerminate) refers to rtx_memory.o(.text.osRtxMemoryFree) for osRtxMemoryFree
    rtx_thread.o(.text.svcRtxThreadTerminate) refers to rtx_mempool.o(.text.osRtxMemoryPoolFree) for osRtxMemoryPoolFree
    rtx_thread.o(.ARM.exidx.text.svcRtxThreadTerminate) refers to rtx_thread.o(.text.svcRtxThreadTerminate) for [Anonymous Symbol]
    rtx_thread.o(.text.svcRtxThreadGetCount) refers to rtx_kernel.o(.data.os) for osRtxInfo
    rtx_thread.o(.ARM.exidx.text.svcRtxThreadGetCount) refers to rtx_thread.o(.text.svcRtxThreadGetCount) for [Anonymous Symbol]
    rtx_thread.o(.text.svcRtxThreadEnumerate) refers to rtx_kernel.o(.data.os) for osRtxInfo
    rtx_thread.o(.ARM.exidx.text.svcRtxThreadEnumerate) refers to rtx_thread.o(.text.svcRtxThreadEnumerate) for [Anonymous Symbol]
    rtx_thread.o(.text.svcRtxThreadFlagsSet) refers to rtx_kernel.o(.data.os) for osRtxInfo
    rtx_thread.o(.text.svcRtxThreadFlagsSet) refers to rtx_thread.o(.text.osRtxThreadStackCheck) for osRtxThreadStackCheck
    rtx_thread.o(.ARM.exidx.text.svcRtxThreadFlagsSet) refers to rtx_thread.o(.text.svcRtxThreadFlagsSet) for [Anonymous Symbol]
    rtx_thread.o(.text.svcRtxThreadFlagsClear) refers to rtx_kernel.o(.data.os) for osRtxInfo
    rtx_thread.o(.ARM.exidx.text.svcRtxThreadFlagsClear) refers to rtx_thread.o(.text.svcRtxThreadFlagsClear) for [Anonymous Symbol]
    rtx_thread.o(.text.svcRtxThreadFlagsGet) refers to rtx_kernel.o(.data.os) for osRtxInfo
    rtx_thread.o(.ARM.exidx.text.svcRtxThreadFlagsGet) refers to rtx_thread.o(.text.svcRtxThreadFlagsGet) for [Anonymous Symbol]
    rtx_thread.o(.text.svcRtxThreadFlagsWait) refers to rtx_kernel.o(.data.os) for osRtxInfo
    rtx_thread.o(.text.svcRtxThreadFlagsWait) refers to rtx_thread.o(.text.osRtxThreadWaitEnter) for osRtxThreadWaitEnter
    rtx_thread.o(.ARM.exidx.text.svcRtxThreadFlagsWait) refers to rtx_thread.o(.text.svcRtxThreadFlagsWait) for [Anonymous Symbol]
    rtx_thread.o(.text.osThreadNew) refers to rtx_thread.o(.text.svcRtxThreadNew) for svcRtxThreadNew
    rtx_thread.o(.ARM.exidx.text.osThreadNew) refers to rtx_thread.o(.text.osThreadNew) for [Anonymous Symbol]
    rtx_thread.o(.text.osThreadGetName) refers to rtx_thread.o(.text.svcRtxThreadGetName) for svcRtxThreadGetName
    rtx_thread.o(.ARM.exidx.text.osThreadGetName) refers to rtx_thread.o(.text.osThreadGetName) for [Anonymous Symbol]
    rtx_thread.o(.text.osThreadGetId) refers to rtx_thread.o(.text.svcRtxThreadGetId) for svcRtxThreadGetId
    rtx_thread.o(.ARM.exidx.text.osThreadGetId) refers to rtx_thread.o(.text.osThreadGetId) for [Anonymous Symbol]
    rtx_thread.o(.text.osThreadGetState) refers to rtx_thread.o(.text.svcRtxThreadGetState) for svcRtxThreadGetState
    rtx_thread.o(.ARM.exidx.text.osThreadGetState) refers to rtx_thread.o(.text.osThreadGetState) for [Anonymous Symbol]
    rtx_thread.o(.text.osThreadGetStackSize) refers to rtx_thread.o(.text.svcRtxThreadGetStackSize) for svcRtxThreadGetStackSize
    rtx_thread.o(.ARM.exidx.text.osThreadGetStackSize) refers to rtx_thread.o(.text.osThreadGetStackSize) for [Anonymous Symbol]
    rtx_thread.o(.text.osThreadGetStackSpace) refers to rtx_thread.o(.text.svcRtxThreadGetStackSpace) for svcRtxThreadGetStackSpace
    rtx_thread.o(.ARM.exidx.text.osThreadGetStackSpace) refers to rtx_thread.o(.text.osThreadGetStackSpace) for [Anonymous Symbol]
    rtx_thread.o(.text.osThreadSetPriority) refers to rtx_thread.o(.text.svcRtxThreadSetPriority) for svcRtxThreadSetPriority
    rtx_thread.o(.ARM.exidx.text.osThreadSetPriority) refers to rtx_thread.o(.text.osThreadSetPriority) for [Anonymous Symbol]
    rtx_thread.o(.text.osThreadGetPriority) refers to rtx_thread.o(.text.svcRtxThreadGetPriority) for svcRtxThreadGetPriority
    rtx_thread.o(.ARM.exidx.text.osThreadGetPriority) refers to rtx_thread.o(.text.osThreadGetPriority) for [Anonymous Symbol]
    rtx_thread.o(.text.osThreadYield) refers to rtx_thread.o(.text.svcRtxThreadYield) for svcRtxThreadYield
    rtx_thread.o(.ARM.exidx.text.osThreadYield) refers to rtx_thread.o(.text.osThreadYield) for [Anonymous Symbol]
    rtx_thread.o(.text.osThreadSuspend) refers to rtx_thread.o(.text.svcRtxThreadSuspend) for svcRtxThreadSuspend
    rtx_thread.o(.ARM.exidx.text.osThreadSuspend) refers to rtx_thread.o(.text.osThreadSuspend) for [Anonymous Symbol]
    rtx_thread.o(.text.osThreadResume) refers to rtx_thread.o(.text.svcRtxThreadResume) for svcRtxThreadResume
    rtx_thread.o(.ARM.exidx.text.osThreadResume) refers to rtx_thread.o(.text.osThreadResume) for [Anonymous Symbol]
    rtx_thread.o(.text.osThreadDetach) refers to rtx_thread.o(.text.svcRtxThreadDetach) for svcRtxThreadDetach
    rtx_thread.o(.ARM.exidx.text.osThreadDetach) refers to rtx_thread.o(.text.osThreadDetach) for [Anonymous Symbol]
    rtx_thread.o(.text.osThreadJoin) refers to rtx_thread.o(.text.svcRtxThreadJoin) for svcRtxThreadJoin
    rtx_thread.o(.ARM.exidx.text.osThreadJoin) refers to rtx_thread.o(.text.osThreadJoin) for [Anonymous Symbol]
    rtx_thread.o(.text.osThreadTerminate) refers to rtx_thread.o(.text.svcRtxThreadTerminate) for svcRtxThreadTerminate
    rtx_thread.o(.ARM.exidx.text.osThreadTerminate) refers to rtx_thread.o(.text.osThreadTerminate) for [Anonymous Symbol]
    rtx_thread.o(.text.osThreadGetCount) refers to rtx_thread.o(.text.svcRtxThreadGetCount) for svcRtxThreadGetCount
    rtx_thread.o(.ARM.exidx.text.osThreadGetCount) refers to rtx_thread.o(.text.osThreadGetCount) for [Anonymous Symbol]
    rtx_thread.o(.text.osThreadEnumerate) refers to rtx_thread.o(.text.svcRtxThreadEnumerate) for svcRtxThreadEnumerate
    rtx_thread.o(.ARM.exidx.text.osThreadEnumerate) refers to rtx_thread.o(.text.osThreadEnumerate) for [Anonymous Symbol]
    rtx_thread.o(.text.osThreadFlagsSet) refers to rtx_system.o(.text.osRtxPostProcess) for osRtxPostProcess
    rtx_thread.o(.text.osThreadFlagsSet) refers to rtx_thread.o(.text.svcRtxThreadFlagsSet) for svcRtxThreadFlagsSet
    rtx_thread.o(.ARM.exidx.text.osThreadFlagsSet) refers to rtx_thread.o(.text.osThreadFlagsSet) for [Anonymous Symbol]
    rtx_thread.o(.text.osThreadFlagsClear) refers to rtx_thread.o(.text.svcRtxThreadFlagsClear) for svcRtxThreadFlagsClear
    rtx_thread.o(.ARM.exidx.text.osThreadFlagsClear) refers to rtx_thread.o(.text.osThreadFlagsClear) for [Anonymous Symbol]
    rtx_thread.o(.text.osThreadFlagsGet) refers to rtx_thread.o(.text.svcRtxThreadFlagsGet) for svcRtxThreadFlagsGet
    rtx_thread.o(.ARM.exidx.text.osThreadFlagsGet) refers to rtx_thread.o(.text.osThreadFlagsGet) for [Anonymous Symbol]
    rtx_thread.o(.text.osThreadFlagsWait) refers to rtx_thread.o(.text.svcRtxThreadFlagsWait) for svcRtxThreadFlagsWait
    rtx_thread.o(.ARM.exidx.text.osThreadFlagsWait) refers to rtx_thread.o(.text.osThreadFlagsWait) for [Anonymous Symbol]
    rtx_delay.o(.text.svcRtxDelay) refers to rtx_thread.o(.text.osRtxThreadWaitEnter) for osRtxThreadWaitEnter
    rtx_delay.o(.ARM.exidx.text.svcRtxDelay) refers to rtx_delay.o(.text.svcRtxDelay) for [Anonymous Symbol]
    rtx_delay.o(.text.svcRtxDelayUntil) refers to rtx_kernel.o(.data.os) for osRtxInfo
    rtx_delay.o(.text.svcRtxDelayUntil) refers to rtx_thread.o(.text.osRtxThreadWaitEnter) for osRtxThreadWaitEnter
    rtx_delay.o(.ARM.exidx.text.svcRtxDelayUntil) refers to rtx_delay.o(.text.svcRtxDelayUntil) for [Anonymous Symbol]
    rtx_delay.o(.text.osDelay) refers to rtx_delay.o(.text.svcRtxDelay) for svcRtxDelay
    rtx_delay.o(.ARM.exidx.text.osDelay) refers to rtx_delay.o(.text.osDelay) for [Anonymous Symbol]
    rtx_delay.o(.text.osDelayUntil) refers to rtx_delay.o(.text.svcRtxDelayUntil) for svcRtxDelayUntil
    rtx_delay.o(.ARM.exidx.text.osDelayUntil) refers to rtx_delay.o(.text.osDelayUntil) for [Anonymous Symbol]
    rtx_mutex.o(.text.osRtxMutexOwnerRelease) refers to rtx_thread.o(.text.osRtxThreadListGet) for osRtxThreadListGet
    rtx_mutex.o(.text.osRtxMutexOwnerRelease) refers to rtx_thread.o(.text.osRtxThreadWaitExit) for osRtxThreadWaitExit
    rtx_mutex.o(.ARM.exidx.text.osRtxMutexOwnerRelease) refers to rtx_mutex.o(.text.osRtxMutexOwnerRelease) for [Anonymous Symbol]
    rtx_mutex.o(.text.svcRtxMutexNew) refers to rtx_kernel.o(.data.os) for osRtxInfo
    rtx_mutex.o(.text.svcRtxMutexNew) refers to rtx_mempool.o(.text.osRtxMemoryPoolAlloc) for osRtxMemoryPoolAlloc
    rtx_mutex.o(.text.svcRtxMutexNew) refers to rtx_memory.o(.text.osRtxMemoryAlloc) for osRtxMemoryAlloc
    rtx_mutex.o(.ARM.exidx.text.svcRtxMutexNew) refers to rtx_mutex.o(.text.svcRtxMutexNew) for [Anonymous Symbol]
    rtx_mutex.o(.ARM.exidx.text.svcRtxMutexGetName) refers to rtx_mutex.o(.text.svcRtxMutexGetName) for [Anonymous Symbol]
    rtx_mutex.o(.text.svcRtxMutexAcquire) refers to rtx_kernel.o(.data.os) for osRtxInfo
    rtx_mutex.o(.text.svcRtxMutexAcquire) refers to rtx_thread.o(.text.osRtxThreadListSort) for osRtxThreadListSort
    rtx_mutex.o(.text.svcRtxMutexAcquire) refers to rtx_thread.o(.text.osRtxThreadListPut) for osRtxThreadListPut
    rtx_mutex.o(.text.svcRtxMutexAcquire) refers to rtx_thread.o(.text.osRtxThreadWaitEnter) for osRtxThreadWaitEnter
    rtx_mutex.o(.ARM.exidx.text.svcRtxMutexAcquire) refers to rtx_mutex.o(.text.svcRtxMutexAcquire) for [Anonymous Symbol]
    rtx_mutex.o(.text.svcRtxMutexRelease) refers to rtx_kernel.o(.data.os) for osRtxInfo
    rtx_mutex.o(.text.svcRtxMutexRelease) refers to rtx_thread.o(.text.osRtxThreadListGet) for osRtxThreadListGet
    rtx_mutex.o(.text.svcRtxMutexRelease) refers to rtx_thread.o(.text.osRtxThreadWaitExit) for osRtxThreadWaitExit
    rtx_mutex.o(.text.svcRtxMutexRelease) refers to rtx_thread.o(.text.osRtxThreadDispatch) for osRtxThreadDispatch
    rtx_mutex.o(.ARM.exidx.text.svcRtxMutexRelease) refers to rtx_mutex.o(.text.svcRtxMutexRelease) for [Anonymous Symbol]
    rtx_mutex.o(.ARM.exidx.text.svcRtxMutexGetOwner) refers to rtx_mutex.o(.text.svcRtxMutexGetOwner) for [Anonymous Symbol]
    rtx_mutex.o(.text.svcRtxMutexDelete) refers to rtx_thread.o(.text.osRtxThreadListSort) for osRtxThreadListSort
    rtx_mutex.o(.text.svcRtxMutexDelete) refers to rtx_thread.o(.text.osRtxThreadListGet) for osRtxThreadListGet
    rtx_mutex.o(.text.svcRtxMutexDelete) refers to rtx_thread.o(.text.osRtxThreadWaitExit) for osRtxThreadWaitExit
    rtx_mutex.o(.text.svcRtxMutexDelete) refers to rtx_thread.o(.text.osRtxThreadDispatch) for osRtxThreadDispatch
    rtx_mutex.o(.text.svcRtxMutexDelete) refers to rtx_kernel.o(.data.os) for osRtxInfo
    rtx_mutex.o(.text.svcRtxMutexDelete) refers to rtx_mempool.o(.text.osRtxMemoryPoolFree) for osRtxMemoryPoolFree
    rtx_mutex.o(.text.svcRtxMutexDelete) refers to rtx_memory.o(.text.osRtxMemoryFree) for osRtxMemoryFree
    rtx_mutex.o(.ARM.exidx.text.svcRtxMutexDelete) refers to rtx_mutex.o(.text.svcRtxMutexDelete) for [Anonymous Symbol]
    rtx_mutex.o(.text.osMutexNew) refers to rtx_mutex.o(.text.svcRtxMutexNew) for svcRtxMutexNew
    rtx_mutex.o(.ARM.exidx.text.osMutexNew) refers to rtx_mutex.o(.text.osMutexNew) for [Anonymous Symbol]
    rtx_mutex.o(.text.osMutexGetName) refers to rtx_mutex.o(.text.svcRtxMutexGetName) for svcRtxMutexGetName
    rtx_mutex.o(.ARM.exidx.text.osMutexGetName) refers to rtx_mutex.o(.text.osMutexGetName) for [Anonymous Symbol]
    rtx_mutex.o(.text.osMutexAcquire) refers to rtx_mutex.o(.text.svcRtxMutexAcquire) for svcRtxMutexAcquire
    rtx_mutex.o(.ARM.exidx.text.osMutexAcquire) refers to rtx_mutex.o(.text.osMutexAcquire) for [Anonymous Symbol]
    rtx_mutex.o(.text.osMutexRelease) refers to rtx_mutex.o(.text.svcRtxMutexRelease) for svcRtxMutexRelease
    rtx_mutex.o(.ARM.exidx.text.osMutexRelease) refers to rtx_mutex.o(.text.osMutexRelease) for [Anonymous Symbol]
    rtx_mutex.o(.text.osMutexGetOwner) refers to rtx_mutex.o(.text.svcRtxMutexGetOwner) for svcRtxMutexGetOwner
    rtx_mutex.o(.ARM.exidx.text.osMutexGetOwner) refers to rtx_mutex.o(.text.osMutexGetOwner) for [Anonymous Symbol]
    rtx_mutex.o(.text.osMutexDelete) refers to rtx_mutex.o(.text.svcRtxMutexDelete) for svcRtxMutexDelete
    rtx_mutex.o(.ARM.exidx.text.osMutexDelete) refers to rtx_mutex.o(.text.osMutexDelete) for [Anonymous Symbol]
    rtx_msgqueue.o(.text.osRtxMessageQueuePostProcess) refers to rtx_mempool.o(.text.osRtxMemoryPoolFree) for osRtxMemoryPoolFree
    rtx_msgqueue.o(.text.osRtxMessageQueuePostProcess) refers to rtx_mempool.o(.text.osRtxMemoryPoolAlloc) for osRtxMemoryPoolAlloc
    rtx_msgqueue.o(.text.osRtxMessageQueuePostProcess) refers to rtx_thread.o(.text.osRtxThreadListGet) for osRtxThreadListGet
    rtx_msgqueue.o(.text.osRtxMessageQueuePostProcess) refers to rtx_thread.o(.text.osRtxThreadWaitExit) for osRtxThreadWaitExit
    rtx_msgqueue.o(.text.osRtxMessageQueuePostProcess) refers to rtx_thread.o(.text.osRtxThreadRegPtr) for osRtxThreadRegPtr
    rtx_msgqueue.o(.text.osRtxMessageQueuePostProcess) refers to rt_memcpy_v6.o(.text) for __aeabi_memcpy
    rtx_msgqueue.o(.ARM.exidx.text.osRtxMessageQueuePostProcess) refers to rtx_msgqueue.o(.text.osRtxMessageQueuePostProcess) for [Anonymous Symbol]
    rtx_msgqueue.o(.text.svcRtxMessageQueueNew) refers to rtx_kernel.o(.data.os) for osRtxInfo
    rtx_msgqueue.o(.text.svcRtxMessageQueueNew) refers to rtx_mempool.o(.text.osRtxMemoryPoolAlloc) for osRtxMemoryPoolAlloc
    rtx_msgqueue.o(.text.svcRtxMessageQueueNew) refers to rtx_memory.o(.text.osRtxMemoryAlloc) for osRtxMemoryAlloc
    rtx_msgqueue.o(.text.svcRtxMessageQueueNew) refers to rt_memclr.o(.text) for __aeabi_memclr
    rtx_msgqueue.o(.text.svcRtxMessageQueueNew) refers to rtx_mempool.o(.text.osRtxMemoryPoolInit) for osRtxMemoryPoolInit
    rtx_msgqueue.o(.text.svcRtxMessageQueueNew) refers to rtx_msgqueue.o(.text.osRtxMessageQueuePostProcess) for osRtxMessageQueuePostProcess
    rtx_msgqueue.o(.text.svcRtxMessageQueueNew) refers to rtx_mempool.o(.text.osRtxMemoryPoolFree) for osRtxMemoryPoolFree
    rtx_msgqueue.o(.text.svcRtxMessageQueueNew) refers to rtx_memory.o(.text.osRtxMemoryFree) for osRtxMemoryFree
    rtx_msgqueue.o(.ARM.exidx.text.svcRtxMessageQueueNew) refers to rtx_msgqueue.o(.text.svcRtxMessageQueueNew) for [Anonymous Symbol]
    rtx_msgqueue.o(.ARM.exidx.text.svcRtxMessageQueueGetName) refers to rtx_msgqueue.o(.text.svcRtxMessageQueueGetName) for [Anonymous Symbol]
    rtx_msgqueue.o(.text.svcRtxMessageQueuePut) refers to rtx_thread.o(.text.osRtxThreadListGet) for osRtxThreadListGet
    rtx_msgqueue.o(.text.svcRtxMessageQueuePut) refers to rtx_thread.o(.text.osRtxThreadWaitExit) for osRtxThreadWaitExit
    rtx_msgqueue.o(.text.svcRtxMessageQueuePut) refers to rtx_thread.o(.text.osRtxThreadRegPtr) for osRtxThreadRegPtr
    rtx_msgqueue.o(.text.svcRtxMessageQueuePut) refers to rt_memcpy_v6.o(.text) for __aeabi_memcpy
    rtx_msgqueue.o(.text.svcRtxMessageQueuePut) refers to rtx_mempool.o(.text.osRtxMemoryPoolAlloc) for osRtxMemoryPoolAlloc
    rtx_msgqueue.o(.text.svcRtxMessageQueuePut) refers to rtx_kernel.o(.data.os) for osRtxInfo
    rtx_msgqueue.o(.text.svcRtxMessageQueuePut) refers to rtx_thread.o(.text.osRtxThreadListPut) for osRtxThreadListPut
    rtx_msgqueue.o(.text.svcRtxMessageQueuePut) refers to rtx_thread.o(.text.osRtxThreadWaitEnter) for osRtxThreadWaitEnter
    rtx_msgqueue.o(.ARM.exidx.text.svcRtxMessageQueuePut) refers to rtx_msgqueue.o(.text.svcRtxMessageQueuePut) for [Anonymous Symbol]
    rtx_msgqueue.o(.text.svcRtxMessageQueueGet) refers to rtx_kernel.o(.data.os) for osRtxInfo
    rtx_msgqueue.o(.text.svcRtxMessageQueueGet) refers to rtx_thread.o(.text.osRtxThreadListPut) for osRtxThreadListPut
    rtx_msgqueue.o(.text.svcRtxMessageQueueGet) refers to rtx_thread.o(.text.osRtxThreadWaitEnter) for osRtxThreadWaitEnter
    rtx_msgqueue.o(.text.svcRtxMessageQueueGet) refers to rt_memcpy_v6.o(.text) for __aeabi_memcpy
    rtx_msgqueue.o(.text.svcRtxMessageQueueGet) refers to rtx_mempool.o(.text.osRtxMemoryPoolFree) for osRtxMemoryPoolFree
    rtx_msgqueue.o(.text.svcRtxMessageQueueGet) refers to rtx_mempool.o(.text.osRtxMemoryPoolAlloc) for osRtxMemoryPoolAlloc
    rtx_msgqueue.o(.text.svcRtxMessageQueueGet) refers to rtx_thread.o(.text.osRtxThreadListGet) for osRtxThreadListGet
    rtx_msgqueue.o(.text.svcRtxMessageQueueGet) refers to rtx_thread.o(.text.osRtxThreadWaitExit) for osRtxThreadWaitExit
    rtx_msgqueue.o(.text.svcRtxMessageQueueGet) refers to rtx_thread.o(.text.osRtxThreadRegPtr) for osRtxThreadRegPtr
    rtx_msgqueue.o(.ARM.exidx.text.svcRtxMessageQueueGet) refers to rtx_msgqueue.o(.text.svcRtxMessageQueueGet) for [Anonymous Symbol]
    rtx_msgqueue.o(.ARM.exidx.text.svcRtxMessageQueueGetCapacity) refers to rtx_msgqueue.o(.text.svcRtxMessageQueueGetCapacity) for [Anonymous Symbol]
    rtx_msgqueue.o(.ARM.exidx.text.svcRtxMessageQueueGetMsgSize) refers to rtx_msgqueue.o(.text.svcRtxMessageQueueGetMsgSize) for [Anonymous Symbol]
    rtx_msgqueue.o(.ARM.exidx.text.svcRtxMessageQueueGetCount) refers to rtx_msgqueue.o(.text.svcRtxMessageQueueGetCount) for [Anonymous Symbol]
    rtx_msgqueue.o(.ARM.exidx.text.svcRtxMessageQueueGetSpace) refers to rtx_msgqueue.o(.text.svcRtxMessageQueueGetSpace) for [Anonymous Symbol]
    rtx_msgqueue.o(.text.svcRtxMessageQueueReset) refers to rtx_mempool.o(.text.osRtxMemoryPoolFree) for osRtxMemoryPoolFree
    rtx_msgqueue.o(.text.svcRtxMessageQueueReset) refers to rtx_mempool.o(.text.osRtxMemoryPoolAlloc) for osRtxMemoryPoolAlloc
    rtx_msgqueue.o(.text.svcRtxMessageQueueReset) refers to rtx_thread.o(.text.osRtxThreadListGet) for osRtxThreadListGet
    rtx_msgqueue.o(.text.svcRtxMessageQueueReset) refers to rtx_thread.o(.text.osRtxThreadWaitExit) for osRtxThreadWaitExit
    rtx_msgqueue.o(.text.svcRtxMessageQueueReset) refers to rtx_thread.o(.text.osRtxThreadRegPtr) for osRtxThreadRegPtr
    rtx_msgqueue.o(.text.svcRtxMessageQueueReset) refers to rt_memcpy_v6.o(.text) for __aeabi_memcpy
    rtx_msgqueue.o(.text.svcRtxMessageQueueReset) refers to rtx_thread.o(.text.osRtxThreadDispatch) for osRtxThreadDispatch
    rtx_msgqueue.o(.ARM.exidx.text.svcRtxMessageQueueReset) refers to rtx_msgqueue.o(.text.svcRtxMessageQueueReset) for [Anonymous Symbol]
    rtx_msgqueue.o(.text.svcRtxMessageQueueDelete) refers to rtx_thread.o(.text.osRtxThreadListGet) for osRtxThreadListGet
    rtx_msgqueue.o(.text.svcRtxMessageQueueDelete) refers to rtx_thread.o(.text.osRtxThreadWaitExit) for osRtxThreadWaitExit
    rtx_msgqueue.o(.text.svcRtxMessageQueueDelete) refers to rtx_thread.o(.text.osRtxThreadDispatch) for osRtxThreadDispatch
    rtx_msgqueue.o(.text.svcRtxMessageQueueDelete) refers to rtx_kernel.o(.data.os) for osRtxInfo
    rtx_msgqueue.o(.text.svcRtxMessageQueueDelete) refers to rtx_memory.o(.text.osRtxMemoryFree) for osRtxMemoryFree
    rtx_msgqueue.o(.text.svcRtxMessageQueueDelete) refers to rtx_mempool.o(.text.osRtxMemoryPoolFree) for osRtxMemoryPoolFree
    rtx_msgqueue.o(.ARM.exidx.text.svcRtxMessageQueueDelete) refers to rtx_msgqueue.o(.text.svcRtxMessageQueueDelete) for [Anonymous Symbol]
    rtx_msgqueue.o(.text.osMessageQueueNew) refers to rtx_msgqueue.o(.text.svcRtxMessageQueueNew) for svcRtxMessageQueueNew
    rtx_msgqueue.o(.ARM.exidx.text.osMessageQueueNew) refers to rtx_msgqueue.o(.text.osMessageQueueNew) for [Anonymous Symbol]
    rtx_msgqueue.o(.text.osMessageQueueGetName) refers to rtx_msgqueue.o(.text.svcRtxMessageQueueGetName) for svcRtxMessageQueueGetName
    rtx_msgqueue.o(.ARM.exidx.text.osMessageQueueGetName) refers to rtx_msgqueue.o(.text.osMessageQueueGetName) for [Anonymous Symbol]
    rtx_msgqueue.o(.text.osMessageQueuePut) refers to rtx_mempool.o(.text.osRtxMemoryPoolAlloc) for osRtxMemoryPoolAlloc
    rtx_msgqueue.o(.text.osMessageQueuePut) refers to rt_memcpy_v6.o(.text) for __aeabi_memcpy
    rtx_msgqueue.o(.text.osMessageQueuePut) refers to rtx_system.o(.text.osRtxPostProcess) for osRtxPostProcess
    rtx_msgqueue.o(.text.osMessageQueuePut) refers to rtx_msgqueue.o(.text.svcRtxMessageQueuePut) for svcRtxMessageQueuePut
    rtx_msgqueue.o(.ARM.exidx.text.osMessageQueuePut) refers to rtx_msgqueue.o(.text.osMessageQueuePut) for [Anonymous Symbol]
    rtx_msgqueue.o(.text.osMessageQueueGet) refers to rtx_msgqueue.o(.text.svcRtxMessageQueueGet) for svcRtxMessageQueueGet
    rtx_msgqueue.o(.text.osMessageQueueGet) refers to rt_memcpy_v6.o(.text) for __aeabi_memcpy
    rtx_msgqueue.o(.text.osMessageQueueGet) refers to rtx_system.o(.text.osRtxPostProcess) for osRtxPostProcess
    rtx_msgqueue.o(.ARM.exidx.text.osMessageQueueGet) refers to rtx_msgqueue.o(.text.osMessageQueueGet) for [Anonymous Symbol]
    rtx_msgqueue.o(.text.osMessageQueueGetCapacity) refers to rtx_msgqueue.o(.text.svcRtxMessageQueueGetCapacity) for svcRtxMessageQueueGetCapacity
    rtx_msgqueue.o(.ARM.exidx.text.osMessageQueueGetCapacity) refers to rtx_msgqueue.o(.text.osMessageQueueGetCapacity) for [Anonymous Symbol]
    rtx_msgqueue.o(.text.osMessageQueueGetMsgSize) refers to rtx_msgqueue.o(.text.svcRtxMessageQueueGetMsgSize) for svcRtxMessageQueueGetMsgSize
    rtx_msgqueue.o(.ARM.exidx.text.osMessageQueueGetMsgSize) refers to rtx_msgqueue.o(.text.osMessageQueueGetMsgSize) for [Anonymous Symbol]
    rtx_msgqueue.o(.text.osMessageQueueGetCount) refers to rtx_msgqueue.o(.text.svcRtxMessageQueueGetCount) for svcRtxMessageQueueGetCount
    rtx_msgqueue.o(.ARM.exidx.text.osMessageQueueGetCount) refers to rtx_msgqueue.o(.text.osMessageQueueGetCount) for [Anonymous Symbol]
    rtx_msgqueue.o(.text.osMessageQueueGetSpace) refers to rtx_msgqueue.o(.text.svcRtxMessageQueueGetSpace) for svcRtxMessageQueueGetSpace
    rtx_msgqueue.o(.ARM.exidx.text.osMessageQueueGetSpace) refers to rtx_msgqueue.o(.text.osMessageQueueGetSpace) for [Anonymous Symbol]
    rtx_msgqueue.o(.text.osMessageQueueReset) refers to rtx_msgqueue.o(.text.svcRtxMessageQueueReset) for svcRtxMessageQueueReset
    rtx_msgqueue.o(.ARM.exidx.text.osMessageQueueReset) refers to rtx_msgqueue.o(.text.osMessageQueueReset) for [Anonymous Symbol]
    rtx_msgqueue.o(.text.osMessageQueueDelete) refers to rtx_msgqueue.o(.text.svcRtxMessageQueueDelete) for svcRtxMessageQueueDelete
    rtx_msgqueue.o(.ARM.exidx.text.osMessageQueueDelete) refers to rtx_msgqueue.o(.text.osMessageQueueDelete) for [Anonymous Symbol]
    irq_cm4f.o(.text) refers to rtx_system.o(.text.osRtxPendSV_Handler) for osRtxPendSV_Handler
    irq_cm4f.o(.text) refers to rtx_system.o(.text.osRtxTick_Handler) for osRtxTick_Handler
    irq_cm4f.o(.text) refers to rtx_kernel.o(.data.os) for osRtxInfo
    irq_cm4f.o(.text) refers to rtx_lib.o(.constdata) for osRtxUserSVC
    rtx_timer.o(.text.osRtxTimerTick) refers to rtx_kernel.o(.data.os) for osRtxInfo
    rtx_timer.o(.text.osRtxTimerTick) refers to rtx_msgqueue.o(.text.osMessageQueuePut) for osMessageQueuePut
    rtx_timer.o(.text.osRtxTimerTick) refers to rtx_config.o(i.osRtxErrorNotify) for osRtxErrorNotify
    rtx_timer.o(.ARM.exidx.text.osRtxTimerTick) refers to rtx_timer.o(.text.osRtxTimerTick) for [Anonymous Symbol]
    rtx_timer.o(.text.osRtxTimerThread) refers to rtx_kernel.o(.data.os) for osRtxInfo
    rtx_timer.o(.text.osRtxTimerThread) refers to rtx_msgqueue.o(.text.osMessageQueueGet) for osMessageQueueGet
    rtx_timer.o(.ARM.exidx.text.osRtxTimerThread) refers to rtx_timer.o(.text.osRtxTimerThread) for [Anonymous Symbol]
    rtx_timer.o(.text.svcRtxTimerNew) refers to rtx_kernel.o(.data.os) for osRtxInfo
    rtx_timer.o(.text.svcRtxTimerNew) refers to rtx_lib.o(.rodata) for osRtxConfig
    rtx_timer.o(.text.svcRtxTimerNew) refers to rtx_msgqueue.o(.text.svcRtxMessageQueueNew) for svcRtxMessageQueueNew
    rtx_timer.o(.text.svcRtxTimerNew) refers to rtx_timer.o(.text.osRtxTimerThread) for osRtxTimerThread
    rtx_timer.o(.text.svcRtxTimerNew) refers to rtx_thread.o(.text.svcRtxThreadNew) for svcRtxThreadNew
    rtx_timer.o(.text.svcRtxTimerNew) refers to rtx_mempool.o(.text.osRtxMemoryPoolAlloc) for osRtxMemoryPoolAlloc
    rtx_timer.o(.text.svcRtxTimerNew) refers to rtx_memory.o(.text.osRtxMemoryAlloc) for osRtxMemoryAlloc
    rtx_timer.o(.ARM.exidx.text.svcRtxTimerNew) refers to rtx_timer.o(.text.svcRtxTimerNew) for [Anonymous Symbol]
    rtx_timer.o(.ARM.exidx.text.svcRtxTimerGetName) refers to rtx_timer.o(.text.svcRtxTimerGetName) for [Anonymous Symbol]
    rtx_timer.o(.text.svcRtxTimerStart) refers to rtx_kernel.o(.data.os) for osRtxInfo
    rtx_timer.o(.ARM.exidx.text.svcRtxTimerStart) refers to rtx_timer.o(.text.svcRtxTimerStart) for [Anonymous Symbol]
    rtx_timer.o(.text.svcRtxTimerStop) refers to rtx_kernel.o(.data.os) for osRtxInfo
    rtx_timer.o(.ARM.exidx.text.svcRtxTimerStop) refers to rtx_timer.o(.text.svcRtxTimerStop) for [Anonymous Symbol]
    rtx_timer.o(.ARM.exidx.text.svcRtxTimerIsRunning) refers to rtx_timer.o(.text.svcRtxTimerIsRunning) for [Anonymous Symbol]
    rtx_timer.o(.text.svcRtxTimerDelete) refers to rtx_kernel.o(.data.os) for osRtxInfo
    rtx_timer.o(.text.svcRtxTimerDelete) refers to rtx_mempool.o(.text.osRtxMemoryPoolFree) for osRtxMemoryPoolFree
    rtx_timer.o(.text.svcRtxTimerDelete) refers to rtx_memory.o(.text.osRtxMemoryFree) for osRtxMemoryFree
    rtx_timer.o(.ARM.exidx.text.svcRtxTimerDelete) refers to rtx_timer.o(.text.svcRtxTimerDelete) for [Anonymous Symbol]
    rtx_timer.o(.text.osTimerNew) refers to rtx_timer.o(.text.svcRtxTimerNew) for svcRtxTimerNew
    rtx_timer.o(.ARM.exidx.text.osTimerNew) refers to rtx_timer.o(.text.osTimerNew) for [Anonymous Symbol]
    rtx_timer.o(.text.osTimerGetName) refers to rtx_timer.o(.text.svcRtxTimerGetName) for svcRtxTimerGetName
    rtx_timer.o(.ARM.exidx.text.osTimerGetName) refers to rtx_timer.o(.text.osTimerGetName) for [Anonymous Symbol]
    rtx_timer.o(.text.osTimerStart) refers to rtx_timer.o(.text.svcRtxTimerStart) for svcRtxTimerStart
    rtx_timer.o(.ARM.exidx.text.osTimerStart) refers to rtx_timer.o(.text.osTimerStart) for [Anonymous Symbol]
    rtx_timer.o(.text.osTimerStop) refers to rtx_timer.o(.text.svcRtxTimerStop) for svcRtxTimerStop
    rtx_timer.o(.ARM.exidx.text.osTimerStop) refers to rtx_timer.o(.text.osTimerStop) for [Anonymous Symbol]
    rtx_timer.o(.text.osTimerIsRunning) refers to rtx_timer.o(.text.svcRtxTimerIsRunning) for svcRtxTimerIsRunning
    rtx_timer.o(.ARM.exidx.text.osTimerIsRunning) refers to rtx_timer.o(.text.osTimerIsRunning) for [Anonymous Symbol]
    rtx_timer.o(.text.osTimerDelete) refers to rtx_timer.o(.text.svcRtxTimerDelete) for svcRtxTimerDelete
    rtx_timer.o(.ARM.exidx.text.osTimerDelete) refers to rtx_timer.o(.text.osTimerDelete) for [Anonymous Symbol]
    rtx_memory.o(.ARM.exidx.text.osRtxMemoryInit) refers to rtx_memory.o(.text.osRtxMemoryInit) for [Anonymous Symbol]
    rtx_memory.o(.ARM.exidx.text.osRtxMemoryAlloc) refers to rtx_memory.o(.text.osRtxMemoryAlloc) for [Anonymous Symbol]
    rtx_memory.o(.ARM.exidx.text.osRtxMemoryFree) refers to rtx_memory.o(.text.osRtxMemoryFree) for [Anonymous Symbol]
    rtx_mempool.o(.ARM.exidx.text.osRtxMemoryPoolInit) refers to rtx_mempool.o(.text.osRtxMemoryPoolInit) for [Anonymous Symbol]
    rtx_mempool.o(.ARM.exidx.text.osRtxMemoryPoolAlloc) refers to rtx_mempool.o(.text.osRtxMemoryPoolAlloc) for [Anonymous Symbol]
    rtx_mempool.o(.ARM.exidx.text.osRtxMemoryPoolFree) refers to rtx_mempool.o(.text.osRtxMemoryPoolFree) for [Anonymous Symbol]
    rtx_mempool.o(.text.osRtxMemoryPoolPostProcess) refers to rtx_thread.o(.text.osRtxThreadListGet) for osRtxThreadListGet
    rtx_mempool.o(.text.osRtxMemoryPoolPostProcess) refers to rtx_thread.o(.text.osRtxThreadWaitExit) for osRtxThreadWaitExit
    rtx_mempool.o(.ARM.exidx.text.osRtxMemoryPoolPostProcess) refers to rtx_mempool.o(.text.osRtxMemoryPoolPostProcess) for [Anonymous Symbol]
    rtx_mempool.o(.text.svcRtxMemoryPoolNew) refers to rtx_kernel.o(.data.os) for osRtxInfo
    rtx_mempool.o(.text.svcRtxMemoryPoolNew) refers to rtx_memory.o(.text.osRtxMemoryAlloc) for osRtxMemoryAlloc
    rtx_mempool.o(.text.svcRtxMemoryPoolNew) refers to rt_memclr.o(.text) for __aeabi_memclr
    rtx_mempool.o(.text.svcRtxMemoryPoolNew) refers to rtx_mempool.o(.text.osRtxMemoryPoolPostProcess) for osRtxMemoryPoolPostProcess
    rtx_mempool.o(.text.svcRtxMemoryPoolNew) refers to rtx_memory.o(.text.osRtxMemoryFree) for osRtxMemoryFree
    rtx_mempool.o(.ARM.exidx.text.svcRtxMemoryPoolNew) refers to rtx_mempool.o(.text.svcRtxMemoryPoolNew) for [Anonymous Symbol]
    rtx_mempool.o(.ARM.exidx.text.svcRtxMemoryPoolGetName) refers to rtx_mempool.o(.text.svcRtxMemoryPoolGetName) for [Anonymous Symbol]
    rtx_mempool.o(.text.svcRtxMemoryPoolAlloc) refers to rtx_kernel.o(.data.os) for osRtxInfo
    rtx_mempool.o(.text.svcRtxMemoryPoolAlloc) refers to rtx_thread.o(.text.osRtxThreadListPut) for osRtxThreadListPut
    rtx_mempool.o(.text.svcRtxMemoryPoolAlloc) refers to rtx_thread.o(.text.osRtxThreadWaitEnter) for osRtxThreadWaitEnter
    rtx_mempool.o(.ARM.exidx.text.svcRtxMemoryPoolAlloc) refers to rtx_mempool.o(.text.svcRtxMemoryPoolAlloc) for [Anonymous Symbol]
    rtx_mempool.o(.text.svcRtxMemoryPoolFree) refers to rtx_thread.o(.text.osRtxThreadListGet) for osRtxThreadListGet
    rtx_mempool.o(.text.svcRtxMemoryPoolFree) refers to rtx_thread.o(.text.osRtxThreadWaitExit) for osRtxThreadWaitExit
    rtx_mempool.o(.ARM.exidx.text.svcRtxMemoryPoolFree) refers to rtx_mempool.o(.text.svcRtxMemoryPoolFree) for [Anonymous Symbol]
    rtx_mempool.o(.ARM.exidx.text.svcRtxMemoryPoolGetCapacity) refers to rtx_mempool.o(.text.svcRtxMemoryPoolGetCapacity) for [Anonymous Symbol]
    rtx_mempool.o(.ARM.exidx.text.svcRtxMemoryPoolGetBlockSize) refers to rtx_mempool.o(.text.svcRtxMemoryPoolGetBlockSize) for [Anonymous Symbol]
    rtx_mempool.o(.ARM.exidx.text.svcRtxMemoryPoolGetCount) refers to rtx_mempool.o(.text.svcRtxMemoryPoolGetCount) for [Anonymous Symbol]
    rtx_mempool.o(.ARM.exidx.text.svcRtxMemoryPoolGetSpace) refers to rtx_mempool.o(.text.svcRtxMemoryPoolGetSpace) for [Anonymous Symbol]
    rtx_mempool.o(.text.svcRtxMemoryPoolDelete) refers to rtx_thread.o(.text.osRtxThreadListGet) for osRtxThreadListGet
    rtx_mempool.o(.text.svcRtxMemoryPoolDelete) refers to rtx_thread.o(.text.osRtxThreadWaitExit) for osRtxThreadWaitExit
    rtx_mempool.o(.text.svcRtxMemoryPoolDelete) refers to rtx_thread.o(.text.osRtxThreadDispatch) for osRtxThreadDispatch
    rtx_mempool.o(.text.svcRtxMemoryPoolDelete) refers to rtx_kernel.o(.data.os) for osRtxInfo
    rtx_mempool.o(.text.svcRtxMemoryPoolDelete) refers to rtx_memory.o(.text.osRtxMemoryFree) for osRtxMemoryFree
    rtx_mempool.o(.ARM.exidx.text.svcRtxMemoryPoolDelete) refers to rtx_mempool.o(.text.svcRtxMemoryPoolDelete) for [Anonymous Symbol]
    rtx_mempool.o(.text.osMemoryPoolNew) refers to rtx_mempool.o(.text.svcRtxMemoryPoolNew) for svcRtxMemoryPoolNew
    rtx_mempool.o(.ARM.exidx.text.osMemoryPoolNew) refers to rtx_mempool.o(.text.osMemoryPoolNew) for [Anonymous Symbol]
    rtx_mempool.o(.text.osMemoryPoolGetName) refers to rtx_mempool.o(.text.svcRtxMemoryPoolGetName) for svcRtxMemoryPoolGetName
    rtx_mempool.o(.ARM.exidx.text.osMemoryPoolGetName) refers to rtx_mempool.o(.text.osMemoryPoolGetName) for [Anonymous Symbol]
    rtx_mempool.o(.text.osMemoryPoolAlloc) refers to rtx_mempool.o(.text.svcRtxMemoryPoolAlloc) for svcRtxMemoryPoolAlloc
    rtx_mempool.o(.ARM.exidx.text.osMemoryPoolAlloc) refers to rtx_mempool.o(.text.osMemoryPoolAlloc) for [Anonymous Symbol]
    rtx_mempool.o(.text.osMemoryPoolFree) refers to rtx_system.o(.text.osRtxPostProcess) for osRtxPostProcess
    rtx_mempool.o(.text.osMemoryPoolFree) refers to rtx_mempool.o(.text.svcRtxMemoryPoolFree) for svcRtxMemoryPoolFree
    rtx_mempool.o(.ARM.exidx.text.osMemoryPoolFree) refers to rtx_mempool.o(.text.osMemoryPoolFree) for [Anonymous Symbol]
    rtx_mempool.o(.text.osMemoryPoolGetCapacity) refers to rtx_mempool.o(.text.svcRtxMemoryPoolGetCapacity) for svcRtxMemoryPoolGetCapacity
    rtx_mempool.o(.ARM.exidx.text.osMemoryPoolGetCapacity) refers to rtx_mempool.o(.text.osMemoryPoolGetCapacity) for [Anonymous Symbol]
    rtx_mempool.o(.text.osMemoryPoolGetBlockSize) refers to rtx_mempool.o(.text.svcRtxMemoryPoolGetBlockSize) for svcRtxMemoryPoolGetBlockSize
    rtx_mempool.o(.ARM.exidx.text.osMemoryPoolGetBlockSize) refers to rtx_mempool.o(.text.osMemoryPoolGetBlockSize) for [Anonymous Symbol]
    rtx_mempool.o(.text.osMemoryPoolGetCount) refers to rtx_mempool.o(.text.svcRtxMemoryPoolGetCount) for svcRtxMemoryPoolGetCount
    rtx_mempool.o(.ARM.exidx.text.osMemoryPoolGetCount) refers to rtx_mempool.o(.text.osMemoryPoolGetCount) for [Anonymous Symbol]
    rtx_mempool.o(.text.osMemoryPoolGetSpace) refers to rtx_mempool.o(.text.svcRtxMemoryPoolGetSpace) for svcRtxMemoryPoolGetSpace
    rtx_mempool.o(.ARM.exidx.text.osMemoryPoolGetSpace) refers to rtx_mempool.o(.text.osMemoryPoolGetSpace) for [Anonymous Symbol]
    rtx_mempool.o(.text.osMemoryPoolDelete) refers to rtx_mempool.o(.text.svcRtxMemoryPoolDelete) for svcRtxMemoryPoolDelete
    rtx_mempool.o(.ARM.exidx.text.osMemoryPoolDelete) refers to rtx_mempool.o(.text.osMemoryPoolDelete) for [Anonymous Symbol]
    rtx_system.o(.text.osRtxTick_Handler) refers to rtx_system.o(.text.osRtxSysTimerAckIRQ) for osRtxSysTimerAckIRQ
    rtx_system.o(.text.osRtxTick_Handler) refers to rtx_kernel.o(.data.os) for osRtxInfo
    rtx_system.o(.text.osRtxTick_Handler) refers to rtx_timer.o(.text.osRtxTimerTick) for osRtxTimerTick
    rtx_system.o(.text.osRtxTick_Handler) refers to rtx_thread.o(.text.osRtxThreadDelayTick) for osRtxThreadDelayTick
    rtx_system.o(.text.osRtxTick_Handler) refers to rtx_thread.o(.text.osRtxThreadDispatch) for osRtxThreadDispatch
    rtx_system.o(.text.osRtxTick_Handler) refers to rtx_thread.o(.text.osRtxThreadListRemove) for osRtxThreadListRemove
    rtx_system.o(.text.osRtxTick_Handler) refers to rtx_thread.o(.text.osRtxThreadReadyPut) for osRtxThreadReadyPut
    rtx_system.o(.text.osRtxTick_Handler) refers to rtx_thread.o(.text.osRtxThreadSwitch) for osRtxThreadSwitch
    rtx_system.o(.ARM.exidx.text.osRtxTick_Handler) refers to rtx_system.o(.text.osRtxTick_Handler) for [Anonymous Symbol]
    rtx_system.o(.ARM.exidx.text.osRtxSysTimerAckIRQ) refers to rtx_system.o(.text.osRtxSysTimerAckIRQ) for [Anonymous Symbol]
    rtx_system.o(.text.osRtxPendSV_Handler) refers to rtx_kernel.o(.data.os) for osRtxInfo
    rtx_system.o(.text.osRtxPendSV_Handler) refers to rtx_thread.o(.text.osRtxThreadDispatch) for osRtxThreadDispatch
    rtx_system.o(.ARM.exidx.text.osRtxPendSV_Handler) refers to rtx_system.o(.text.osRtxPendSV_Handler) for [Anonymous Symbol]
    rtx_system.o(.text.osRtxPostProcess) refers to rtx_kernel.o(.data.os) for osRtxInfo
    rtx_system.o(.text.osRtxPostProcess) refers to rtx_config.o(i.osRtxErrorNotify) for osRtxErrorNotify
    rtx_system.o(.ARM.exidx.text.osRtxPostProcess) refers to rtx_system.o(.text.osRtxPostProcess) for [Anonymous Symbol]
    rtx_system.o(.text.osRtxSysTimerSetup) refers to rtx_lib.o(.rodata) for osRtxConfig
    rtx_system.o(.text.osRtxSysTimerSetup) refers to rtx_kernel.o(.data.os) for osRtxInfo
    rtx_system.o(.ARM.exidx.text.osRtxSysTimerSetup) refers to rtx_system.o(.text.osRtxSysTimerSetup) for [Anonymous Symbol]
    rtx_system.o(.ARM.exidx.text.osRtxSysTimerEnable) refers to rtx_system.o(.text.osRtxSysTimerEnable) for [Anonymous Symbol]
    rtx_system.o(.ARM.exidx.text.osRtxSysTimerDisable) refers to rtx_system.o(.text.osRtxSysTimerDisable) for [Anonymous Symbol]
    rtx_system.o(.text.osRtxSysTimerGetCount) refers to rtx_kernel.o(.data.os) for osRtxInfo
    rtx_system.o(.ARM.exidx.text.osRtxSysTimerGetCount) refers to rtx_system.o(.text.osRtxSysTimerGetCount) for [Anonymous Symbol]
    rtx_system.o(.text.osRtxSysTimerGetFreq) refers to rtx_kernel.o(.data.os) for osRtxInfo
    rtx_system.o(.ARM.exidx.text.osRtxSysTimerGetFreq) refers to rtx_system.o(.text.osRtxSysTimerGetFreq) for [Anonymous Symbol]
    c89vsprintf.o(.text) refers (Special) to _printf_a.o(.ARM.Collect$$_printf_percent$$00000006) for _printf_a
    c89vsprintf.o(.text) refers (Special) to _printf_c.o(.ARM.Collect$$_printf_percent$$00000013) for _printf_c
    c89vsprintf.o(.text) refers (Special) to _printf_charcount.o(.text) for _printf_charcount
    c89vsprintf.o(.text) refers (Special) to _printf_d.o(.ARM.Collect$$_printf_percent$$00000009) for _printf_d
    c89vsprintf.o(.text) refers (Special) to _printf_e.o(.ARM.Collect$$_printf_percent$$00000004) for _printf_e
    c89vsprintf.o(.text) refers (Special) to _printf_f.o(.ARM.Collect$$_printf_percent$$00000003) for _printf_f
    c89vsprintf.o(.text) refers (Special) to printf1.o(x$fpl$printf1) for _printf_fp_dec
    c89vsprintf.o(.text) refers (Special) to _printf_g.o(.ARM.Collect$$_printf_percent$$00000005) for _printf_g
    c89vsprintf.o(.text) refers (Special) to _printf_i.o(.ARM.Collect$$_printf_percent$$00000008) for _printf_i
    c89vsprintf.o(.text) refers (Special) to _printf_dec.o(.text) for _printf_int_dec
    c89vsprintf.o(.text) refers (Special) to _printf_l.o(.ARM.Collect$$_printf_percent$$00000012) for _printf_l
    c89vsprintf.o(.text) refers (Special) to _printf_lc.o(.ARM.Collect$$_printf_percent$$00000015) for _printf_lc
    c89vsprintf.o(.text) refers (Special) to _printf_ll.o(.ARM.Collect$$_printf_percent$$00000007) for _printf_ll
    c89vsprintf.o(.text) refers (Special) to _printf_lld.o(.ARM.Collect$$_printf_percent$$0000000E) for _printf_lld
    c89vsprintf.o(.text) refers (Special) to _printf_lli.o(.ARM.Collect$$_printf_percent$$0000000D) for _printf_lli
    c89vsprintf.o(.text) refers (Special) to _printf_llo.o(.ARM.Collect$$_printf_percent$$00000010) for _printf_llo
    c89vsprintf.o(.text) refers (Special) to _printf_llu.o(.ARM.Collect$$_printf_percent$$0000000F) for _printf_llu
    c89vsprintf.o(.text) refers (Special) to _printf_llx.o(.ARM.Collect$$_printf_percent$$00000011) for _printf_llx
    c89vsprintf.o(.text) refers (Special) to _printf_longlong_dec.o(.text) for _printf_longlong_dec
    c89vsprintf.o(.text) refers (Special) to _printf_hex_int_ll_ptr.o(.text) for _printf_longlong_hex
    c89vsprintf.o(.text) refers (Special) to _printf_oct_int_ll.o(.text) for _printf_longlong_oct
    c89vsprintf.o(.text) refers (Special) to _printf_ls.o(.ARM.Collect$$_printf_percent$$00000016) for _printf_ls
    c89vsprintf.o(.text) refers (Special) to _printf_n.o(.ARM.Collect$$_printf_percent$$00000001) for _printf_n
    c89vsprintf.o(.text) refers (Special) to _printf_o.o(.ARM.Collect$$_printf_percent$$0000000B) for _printf_o
    c89vsprintf.o(.text) refers (Special) to _printf_p.o(.ARM.Collect$$_printf_percent$$00000002) for _printf_p
    c89vsprintf.o(.text) refers (Special) to _printf_percent.o(.ARM.Collect$$_printf_percent$$00000000) for _printf_percent
    c89vsprintf.o(.text) refers (Special) to _printf_pad.o(.text) for _printf_post_padding
    c89vsprintf.o(.text) refers (Special) to _printf_s.o(.ARM.Collect$$_printf_percent$$00000014) for _printf_s
    c89vsprintf.o(.text) refers (Special) to _printf_str.o(.text) for _printf_str
    c89vsprintf.o(.text) refers (Special) to _printf_truncate.o(.text) for _printf_truncate_signed
    c89vsprintf.o(.text) refers (Special) to _printf_u.o(.ARM.Collect$$_printf_percent$$0000000A) for _printf_u
    c89vsprintf.o(.text) refers (Special) to _printf_wctomb.o(.text) for _printf_wctomb
    c89vsprintf.o(.text) refers (Special) to _printf_x.o(.ARM.Collect$$_printf_percent$$0000000C) for _printf_x
    c89vsprintf.o(.text) refers to _printf_char_common.o(.text) for _printf_char_common
    c89vsprintf.o(.text) refers to _sputc.o(.text) for _sputc
    rt_memcpy_v6.o(.text) refers to rt_memcpy_w.o(.text) for __aeabi_memcpy4
    aeabi_memset4.o(.text) refers to rt_memclr_w.o(.text) for _memset_w
    rt_memclr.o(.text) refers to rt_memclr_w.o(.text) for _memset_w
    __main.o(!!!main) refers to __rtentry.o(.ARM.Collect$$rtentry$$00000000) for __rt_entry
    init_aeabi.o(.emb_text) refers (Special) to libinit2.o(.ARM.Collect$$libinit$$00000031) for __rt_lib_init_cpp_2
    init_aeabi.o(.init_array) refers (Special) to libinit2.o(.ARM.Collect$$libinit$$00000031) for __rt_lib_init_cpp_2
    init_aeabi.o(.init_array) refers to init_aeabi.o(.text) for __cpp_initialize__aeabi_
    init_aeabi.o(.dummy_text) refers (Special) to libinit2.o(.ARM.Collect$$libinit$$00000031) for __rt_lib_init_cpp_2
    init_aeabi.o(.text) refers (Special) to libinit2.o(.ARM.Collect$$libinit$$00000031) for __rt_lib_init_cpp_2
    init_aeabi.o(.ARM.exidx) refers (Special) to libinit2.o(.ARM.Collect$$libinit$$00000031) for __rt_lib_init_cpp_2
    init_aeabi.o(.ARM.exidx) refers to init_aeabi.o(.text) for .text
    pure_virt.o(i.__cxa_pure_virtual) refers to defsig_pvfn_outer.o(.text) for __rt_SIGPVFN
    pure_virt.o(.ARM.exidx) refers to pure_virt.o(i.__cxa_pure_virtual) for i.__cxa_pure_virtual
    cxa_guard_acquire.o(.ARM.exidx) refers to cxa_guard_acquire.o(i.__cxa_guard_acquire) for i.__cxa_guard_acquire
    cxa_guard_release.o(.ARM.exidx) refers to cxa_guard_release.o(i.__cxa_guard_release) for i.__cxa_guard_release
    lib_rtti_impl.o(i._ZN10__cxxabiv116__enum_type_infoD0Ev) refers to lib_rtti_impl.o(i._ZN10__cxxabiv116__enum_type_infoD1Ev) for __cxxabiv1::__enum_type_info::~__enum_type_info()
    lib_rtti_impl.o(i._ZN10__cxxabiv117__array_type_infoD0Ev) refers to lib_rtti_impl.o(i._ZN10__cxxabiv117__array_type_infoD1Ev) for __cxxabiv1::__array_type_info::~__array_type_info()
    lib_rtti_impl.o(i._ZN10__cxxabiv117__class_type_infoD0Ev) refers to lib_rtti_impl.o(i._ZN10__cxxabiv117__class_type_infoD1Ev) for __cxxabiv1::__class_type_info::~__class_type_info()
    lib_rtti_impl.o(i._ZN10__cxxabiv117__pbase_type_infoD0Ev) refers to lib_rtti_impl.o(i._ZN10__cxxabiv117__pbase_type_infoD1Ev) for __cxxabiv1::__pbase_type_info::~__pbase_type_info()
    lib_rtti_impl.o(i._ZN10__cxxabiv119__pointer_type_infoD0Ev) refers to lib_rtti_impl.o(i._ZN10__cxxabiv119__pointer_type_infoD1Ev) for __cxxabiv1::__pointer_type_info::~__pointer_type_info()
    lib_rtti_impl.o(i._ZN10__cxxabiv119__pointer_type_infoD1Ev) refers to lib_rtti_impl.o(i._ZN10__cxxabiv117__pbase_type_infoD1Ev) for __cxxabiv1::__pbase_type_info::~__pbase_type_info()
    lib_rtti_impl.o(i._ZN10__cxxabiv120__function_type_infoD0Ev) refers to lib_rtti_impl.o(i._ZN10__cxxabiv120__function_type_infoD1Ev) for __cxxabiv1::__function_type_info::~__function_type_info()
    lib_rtti_impl.o(i._ZN10__cxxabiv120__si_class_type_infoD0Ev) refers to lib_rtti_impl.o(i._ZN10__cxxabiv120__si_class_type_infoD1Ev) for __cxxabiv1::__si_class_type_info::~__si_class_type_info()
    lib_rtti_impl.o(i._ZN10__cxxabiv120__si_class_type_infoD1Ev) refers to lib_rtti_impl.o(i._ZN10__cxxabiv117__class_type_infoD1Ev) for __cxxabiv1::__class_type_info::~__class_type_info()
    lib_rtti_impl.o(i._ZN10__cxxabiv121__vmi_class_type_infoD0Ev) refers to lib_rtti_impl.o(i._ZN10__cxxabiv121__vmi_class_type_infoD1Ev) for __cxxabiv1::__vmi_class_type_info::~__vmi_class_type_info()
    lib_rtti_impl.o(i._ZN10__cxxabiv121__vmi_class_type_infoD1Ev) refers to lib_rtti_impl.o(i._ZN10__cxxabiv117__class_type_infoD1Ev) for __cxxabiv1::__class_type_info::~__class_type_info()
    lib_rtti_impl.o(i._ZN10__cxxabiv123__fundamental_type_infoD0Ev) refers to lib_rtti_impl.o(i._ZN10__cxxabiv123__fundamental_type_infoD1Ev) for __cxxabiv1::__fundamental_type_info::~__fundamental_type_info()
    lib_rtti_impl.o(i._ZN10__cxxabiv129__pointer_to_member_type_infoD0Ev) refers to lib_rtti_impl.o(i._ZN10__cxxabiv129__pointer_to_member_type_infoD1Ev) for __cxxabiv1::__pointer_to_member_type_info::~__pointer_to_member_type_info()
    lib_rtti_impl.o(i._ZN10__cxxabiv129__pointer_to_member_type_infoD1Ev) refers to lib_rtti_impl.o(i._ZN10__cxxabiv117__pbase_type_infoD1Ev) for __cxxabiv1::__pbase_type_info::~__pbase_type_info()
    lib_rtti_impl.o(.ARM.exidx) refers to lib_rtti_impl.o(i._ZN10__cxxabiv123__fundamental_type_infoD1Ev) for i._ZN10__cxxabiv123__fundamental_type_infoD1Ev
    lib_rtti_impl.o(.ARM.exidx) refers to lib_rtti_impl.o(i._ZN10__cxxabiv123__fundamental_type_infoD0Ev) for i._ZN10__cxxabiv123__fundamental_type_infoD0Ev
    lib_rtti_impl.o(.ARM.exidx) refers to lib_rtti_impl.o(i._ZN10__cxxabiv117__array_type_infoD1Ev) for i._ZN10__cxxabiv117__array_type_infoD1Ev
    lib_rtti_impl.o(.ARM.exidx) refers to lib_rtti_impl.o(i._ZN10__cxxabiv117__array_type_infoD0Ev) for i._ZN10__cxxabiv117__array_type_infoD0Ev
    lib_rtti_impl.o(.ARM.exidx) refers to lib_rtti_impl.o(i._ZN10__cxxabiv120__function_type_infoD1Ev) for i._ZN10__cxxabiv120__function_type_infoD1Ev
    lib_rtti_impl.o(.ARM.exidx) refers to lib_rtti_impl.o(i._ZN10__cxxabiv120__function_type_infoD0Ev) for i._ZN10__cxxabiv120__function_type_infoD0Ev
    lib_rtti_impl.o(.ARM.exidx) refers to lib_rtti_impl.o(i._ZN10__cxxabiv116__enum_type_infoD1Ev) for i._ZN10__cxxabiv116__enum_type_infoD1Ev
    lib_rtti_impl.o(.ARM.exidx) refers to lib_rtti_impl.o(i._ZN10__cxxabiv116__enum_type_infoD0Ev) for i._ZN10__cxxabiv116__enum_type_infoD0Ev
    lib_rtti_impl.o(.ARM.exidx) refers to lib_rtti_impl.o(i._ZN10__cxxabiv117__class_type_infoD1Ev) for i._ZN10__cxxabiv117__class_type_infoD1Ev
    lib_rtti_impl.o(.ARM.exidx) refers to lib_rtti_impl.o(i._ZN10__cxxabiv117__class_type_infoD0Ev) for i._ZN10__cxxabiv117__class_type_infoD0Ev
    lib_rtti_impl.o(.ARM.exidx) refers to lib_rtti_impl.o(i._ZN10__cxxabiv120__si_class_type_infoD1Ev) for i._ZN10__cxxabiv120__si_class_type_infoD1Ev
    lib_rtti_impl.o(.ARM.exidx) refers to lib_rtti_impl.o(i._ZN10__cxxabiv120__si_class_type_infoD0Ev) for i._ZN10__cxxabiv120__si_class_type_infoD0Ev
    lib_rtti_impl.o(.ARM.exidx) refers to lib_rtti_impl.o(i._ZN10__cxxabiv121__vmi_class_type_infoD1Ev) for i._ZN10__cxxabiv121__vmi_class_type_infoD1Ev
    lib_rtti_impl.o(.ARM.exidx) refers to lib_rtti_impl.o(i._ZN10__cxxabiv121__vmi_class_type_infoD0Ev) for i._ZN10__cxxabiv121__vmi_class_type_infoD0Ev
    lib_rtti_impl.o(.ARM.exidx) refers to lib_rtti_impl.o(i._ZN10__cxxabiv117__pbase_type_infoD1Ev) for i._ZN10__cxxabiv117__pbase_type_infoD1Ev
    lib_rtti_impl.o(.ARM.exidx) refers to lib_rtti_impl.o(i._ZN10__cxxabiv117__pbase_type_infoD0Ev) for i._ZN10__cxxabiv117__pbase_type_infoD0Ev
    lib_rtti_impl.o(.ARM.exidx) refers to lib_rtti_impl.o(i._ZN10__cxxabiv119__pointer_type_infoD1Ev) for i._ZN10__cxxabiv119__pointer_type_infoD1Ev
    lib_rtti_impl.o(.ARM.exidx) refers to lib_rtti_impl.o(i._ZN10__cxxabiv119__pointer_type_infoD0Ev) for i._ZN10__cxxabiv119__pointer_type_infoD0Ev
    lib_rtti_impl.o(.ARM.exidx) refers to lib_rtti_impl.o(i._ZN10__cxxabiv129__pointer_to_member_type_infoD1Ev) for i._ZN10__cxxabiv129__pointer_to_member_type_infoD1Ev
    lib_rtti_impl.o(.ARM.exidx) refers to lib_rtti_impl.o(i._ZN10__cxxabiv129__pointer_to_member_type_infoD0Ev) for i._ZN10__cxxabiv129__pointer_to_member_type_infoD0Ev
    __rtentry.o(.ARM.Collect$$rtentry$$00000000) refers (Special) to __rtentry2.o(.ARM.Collect$$rtentry$$0000000A) for __rt_entry_li
    __rtentry.o(.ARM.Collect$$rtentry$$00000000) refers (Special) to __rtentry2.o(.ARM.Collect$$rtentry$$0000000D) for __rt_entry_main
    __rtentry.o(.ARM.Collect$$rtentry$$00000000) refers (Special) to __rtentry2.o(.ARM.Collect$$rtentry$$0000000C) for __rt_entry_postli_1
    __rtentry.o(.ARM.Collect$$rtentry$$00000000) refers (Special) to __rtentry2.o(.ARM.Collect$$rtentry$$00000008) for __rt_entry_postsh_1
    __rtentry.o(.ARM.Collect$$rtentry$$00000000) refers (Special) to __rtentry2.o(.ARM.Collect$$rtentry$$00000002) for __rt_entry_presh_1
    __rtentry.o(.ARM.Collect$$rtentry$$00000000) refers (Special) to __rtentry4.o(.ARM.Collect$$rtentry$$00000004) for __rt_entry_sh
    __printf.o(.text) refers to _printf_percent.o(.ARM.Collect$$_printf_percent$$00000000) for _printf_percent
    _printf_str.o(.text) refers (Special) to _printf_char.o(.text) for _printf_cs_common
    _printf_str.o(.text) refers (Weak) to _printf_pad.o(.text) for _printf_pre_padding
    _printf_str.o(.text) refers (Weak) to _printf_pad.o(.text) for _printf_post_padding
    _printf_dec.o(.text) refers (Weak) to _printf_truncate.o(.text) for _printf_truncate_signed
    _printf_dec.o(.text) refers (Weak) to _printf_truncate.o(.text) for _printf_truncate_unsigned
    _printf_dec.o(.text) refers to _printf_intcommon.o(.text) for _printf_int_common
    _printf_char_common.o(.text) refers to __printf_flags_ss_wp.o(.text) for __printf
    _printf_wctomb.o(.text) refers (Special) to _printf_wchar.o(.text) for _printf_lcs_common
    _printf_wctomb.o(.text) refers to _wcrtomb.o(.text) for _wcrtomb
    _printf_wctomb.o(.text) refers (Weak) to _printf_pad.o(.text) for _printf_pre_padding
    _printf_wctomb.o(.text) refers (Weak) to _printf_pad.o(.text) for _printf_post_padding
    _printf_wctomb.o(.text) refers to _printf_wctomb.o(.constdata) for .constdata
    _printf_wctomb.o(.constdata) refers (Special) to _printf_wchar.o(.text) for _printf_lcs_common
    _printf_longlong_dec.o(.text) refers to lludiv10.o(.text) for _ll_udiv10
    _printf_longlong_dec.o(.text) refers to _printf_intcommon.o(.text) for _printf_int_common
    _printf_oct_ll.o(.text) refers to _printf_intcommon.o(.text) for _printf_int_common
    _printf_oct_int.o(.text) refers (Weak) to _printf_truncate.o(.text) for _printf_truncate_unsigned
    _printf_oct_int.o(.text) refers to _printf_intcommon.o(.text) for _printf_int_common
    _printf_oct_int_ll.o(.text) refers to _printf_intcommon.o(.text) for _printf_int_common
    _printf_oct_int_ll.o(.text) refers (Weak) to _printf_truncate.o(.text) for _printf_truncate_unsigned
    _printf_hex_ll.o(.text) refers to _printf_intcommon.o(.text) for _printf_int_common
    _printf_hex_ll.o(.text) refers to _printf_hex_ll.o(.constdata) for .constdata
    _printf_hex_int.o(.text) refers (Weak) to _printf_truncate.o(.text) for _printf_truncate_unsigned
    _printf_hex_int.o(.text) refers to _printf_intcommon.o(.text) for _printf_int_common
    _printf_hex_int.o(.text) refers to _printf_hex_int.o(.constdata) for .constdata
    _printf_hex_int_ll.o(.text) refers to _printf_intcommon.o(.text) for _printf_int_common
    _printf_hex_int_ll.o(.text) refers (Weak) to _printf_truncate.o(.text) for _printf_truncate_unsigned
    _printf_hex_int_ll.o(.text) refers to _printf_hex_int_ll.o(.constdata) for .constdata
    _printf_hex_ptr.o(.text) refers to _printf_intcommon.o(.text) for _printf_int_common
    _printf_hex_ptr.o(.text) refers to _printf_hex_ptr.o(.constdata) for .constdata
    _printf_hex_int_ptr.o(.text) refers to _printf_intcommon.o(.text) for _printf_int_common
    _printf_hex_int_ptr.o(.text) refers (Weak) to _printf_truncate.o(.text) for _printf_truncate_unsigned
    _printf_hex_int_ptr.o(.text) refers to _printf_hex_int_ptr.o(.constdata) for .constdata
    _printf_hex_ll_ptr.o(.text) refers to _printf_intcommon.o(.text) for _printf_int_common
    _printf_hex_ll_ptr.o(.text) refers to _printf_hex_ll_ptr.o(.constdata) for .constdata
    _printf_hex_int_ll_ptr.o(.text) refers to _printf_intcommon.o(.text) for _printf_int_common
    _printf_hex_int_ll_ptr.o(.text) refers (Weak) to _printf_truncate.o(.text) for _printf_truncate_unsigned
    _printf_hex_int_ll_ptr.o(.text) refers to _printf_hex_int_ll_ptr.o(.constdata) for .constdata
    __printf_flags.o(.text) refers to _printf_percent.o(.ARM.Collect$$_printf_percent$$00000000) for _printf_percent
    __printf_flags.o(.text) refers to __printf_flags.o(.constdata) for .constdata
    __printf_ss.o(.text) refers to _printf_percent.o(.ARM.Collect$$_printf_percent$$00000000) for _printf_percent
    __printf_flags_ss.o(.text) refers to _printf_percent.o(.ARM.Collect$$_printf_percent$$00000000) for _printf_percent
    __printf_flags_ss.o(.text) refers to __printf_flags_ss.o(.constdata) for .constdata
    __printf_wp.o(.text) refers to __printf_wp.o(i._is_digit) for _is_digit
    __printf_wp.o(.text) refers to _printf_percent.o(.ARM.Collect$$_printf_percent$$00000000) for _printf_percent
    __printf_flags_wp.o(.text) refers to __printf_wp.o(i._is_digit) for _is_digit
    __printf_flags_wp.o(.text) refers to _printf_percent.o(.ARM.Collect$$_printf_percent$$00000000) for _printf_percent
    __printf_flags_wp.o(.text) refers to __printf_flags_wp.o(.constdata) for .constdata
    __printf_ss_wp.o(.text) refers to __printf_wp.o(i._is_digit) for _is_digit
    __printf_ss_wp.o(.text) refers to _printf_percent.o(.ARM.Collect$$_printf_percent$$00000000) for _printf_percent
    __printf_flags_ss_wp.o(.text) refers to __printf_wp.o(i._is_digit) for _is_digit
    __printf_flags_ss_wp.o(.text) refers to _printf_percent.o(.ARM.Collect$$_printf_percent$$00000000) for _printf_percent
    __printf_flags_ss_wp.o(.text) refers to __printf_flags_ss_wp.o(.constdata) for .constdata
    _printf_c.o(.ARM.Collect$$_printf_percent$$00000013) refers (Weak) to _printf_char.o(.text) for _printf_char
    _printf_s.o(.ARM.Collect$$_printf_percent$$00000014) refers (Weak) to _printf_char.o(.text) for _printf_string
    _printf_n.o(.ARM.Collect$$_printf_percent$$00000001) refers (Weak) to _printf_charcount.o(.text) for _printf_charcount
    _printf_x.o(.ARM.Collect$$_printf_percent$$0000000C) refers (Weak) to _printf_hex_int_ll_ptr.o(.text) for _printf_int_hex
    _printf_p.o(.ARM.Collect$$_printf_percent$$00000002) refers (Weak) to _printf_hex_int_ll_ptr.o(.text) for _printf_hex_ptr
    _printf_o.o(.ARM.Collect$$_printf_percent$$0000000B) refers (Weak) to _printf_oct_int_ll.o(.text) for _printf_int_oct
    _printf_i.o(.ARM.Collect$$_printf_percent$$00000008) refers (Weak) to _printf_dec.o(.text) for _printf_int_dec
    _printf_d.o(.ARM.Collect$$_printf_percent$$00000009) refers (Weak) to _printf_dec.o(.text) for _printf_int_dec
    _printf_u.o(.ARM.Collect$$_printf_percent$$0000000A) refers (Weak) to _printf_dec.o(.text) for _printf_int_dec
    _printf_f.o(.ARM.Collect$$_printf_percent$$00000003) refers (Weak) to printf1.o(x$fpl$printf1) for _printf_fp_dec
    _printf_e.o(.ARM.Collect$$_printf_percent$$00000004) refers (Weak) to printf1.o(x$fpl$printf1) for _printf_fp_dec
    _printf_g.o(.ARM.Collect$$_printf_percent$$00000005) refers (Weak) to printf1.o(x$fpl$printf1) for _printf_fp_dec
    _printf_percent.o(.ARM.Collect$$_printf_percent$$00000000) refers (Special) to _printf_percent_end.o(.ARM.Collect$$_printf_percent$$00000017) for _printf_percent_end
    _printf_lli.o(.ARM.Collect$$_printf_percent$$0000000D) refers (Special) to _printf_ll.o(.ARM.Collect$$_printf_percent$$00000007) for _printf_ll
    _printf_lli.o(.ARM.Collect$$_printf_percent$$0000000D) refers (Weak) to _printf_longlong_dec.o(.text) for _printf_longlong_dec
    _printf_lld.o(.ARM.Collect$$_printf_percent$$0000000E) refers (Special) to _printf_ll.o(.ARM.Collect$$_printf_percent$$00000007) for _printf_ll
    _printf_lld.o(.ARM.Collect$$_printf_percent$$0000000E) refers (Weak) to _printf_longlong_dec.o(.text) for _printf_longlong_dec
    _printf_llu.o(.ARM.Collect$$_printf_percent$$0000000F) refers (Special) to _printf_ll.o(.ARM.Collect$$_printf_percent$$00000007) for _printf_ll
    _printf_llu.o(.ARM.Collect$$_printf_percent$$0000000F) refers (Weak) to _printf_longlong_dec.o(.text) for _printf_longlong_dec
    _printf_lc.o(.ARM.Collect$$_printf_percent$$00000015) refers (Special) to _printf_l.o(.ARM.Collect$$_printf_percent$$00000012) for _printf_l
    _printf_lc.o(.ARM.Collect$$_printf_percent$$00000015) refers (Weak) to _printf_wchar.o(.text) for _printf_wchar
    _printf_ls.o(.ARM.Collect$$_printf_percent$$00000016) refers (Special) to _printf_l.o(.ARM.Collect$$_printf_percent$$00000012) for _printf_l
    _printf_ls.o(.ARM.Collect$$_printf_percent$$00000016) refers (Weak) to _printf_wchar.o(.text) for _printf_wstring
    _printf_llo.o(.ARM.Collect$$_printf_percent$$00000010) refers (Special) to _printf_ll.o(.ARM.Collect$$_printf_percent$$00000007) for _printf_ll
    _printf_llo.o(.ARM.Collect$$_printf_percent$$00000010) refers (Weak) to _printf_oct_int_ll.o(.text) for _printf_ll_oct
    _printf_llx.o(.ARM.Collect$$_printf_percent$$00000011) refers (Special) to _printf_ll.o(.ARM.Collect$$_printf_percent$$00000007) for _printf_ll
    _printf_llx.o(.ARM.Collect$$_printf_percent$$00000011) refers (Weak) to _printf_hex_int_ll_ptr.o(.text) for _printf_ll_hex
    defsig_pvfn_outer.o(.text) refers to defsig_pvfn_inner.o(.text) for __rt_SIGPVFN_inner
    defsig_pvfn_outer.o(.text) refers to defsig_exit.o(.text) for __sig_exit
    defsig_pvfn_formal.o(.text) refers to rt_raise.o(.text) for __rt_raise
    libinit2.o(.ARM.Collect$$libinit$$00000001) refers to fpinit.o(x$fpl$fpinit) for _fp_init
    libinit2.o(.ARM.Collect$$libinit$$00000005) refers (Weak) to init_alloc.o(.text) for _init_alloc
    libinit2.o(.ARM.Collect$$libinit$$0000000F) refers (Weak) to rt_locale_twolibspace.o(.text) for __rt_locale
    libinit2.o(.ARM.Collect$$libinit$$00000010) refers to libinit2.o(.ARM.Collect$$libinit$$0000000F) for .ARM.Collect$$libinit$$0000000F
    libinit2.o(.ARM.Collect$$libinit$$00000012) refers to libinit2.o(.ARM.Collect$$libinit$$0000000F) for .ARM.Collect$$libinit$$0000000F
    libinit2.o(.ARM.Collect$$libinit$$00000012) refers (Weak) to lc_ctype_c.o(locale$$code) for _get_lc_ctype
    libinit2.o(.ARM.Collect$$libinit$$00000014) refers to libinit2.o(.ARM.Collect$$libinit$$0000000F) for .ARM.Collect$$libinit$$0000000F
    libinit2.o(.ARM.Collect$$libinit$$00000016) refers to libinit2.o(.ARM.Collect$$libinit$$0000000F) for .ARM.Collect$$libinit$$0000000F
    libinit2.o(.ARM.Collect$$libinit$$00000016) refers (Weak) to lc_numeric_c.o(locale$$code) for _get_lc_numeric
    libinit2.o(.ARM.Collect$$libinit$$00000018) refers to libinit2.o(.ARM.Collect$$libinit$$0000000F) for .ARM.Collect$$libinit$$0000000F
    libinit2.o(.ARM.Collect$$libinit$$00000026) refers to argv_veneer.o(.emb_text) for __ARM_argv_veneer
    libinit2.o(.ARM.Collect$$libinit$$00000027) refers to argv_veneer.o(.emb_text) for __ARM_argv_veneer
    libinit2.o(.ARM.Collect$$libinit$$00000031) refers (Weak) to init_aeabi.o(.text) for __cpp_initialize__aeabi_
    type_info_dtor.o(.ARM.exidx) refers to type_info_dtor.o(i._ZNSt9type_infoD1Ev) for i._ZNSt9type_infoD1Ev
    type_info_dtor.o(.ARM.exidx) refers to type_info_dtor.o(i._ZNSt9type_infoD0Ev) for i._ZNSt9type_infoD0Ev
    arm_exceptions_callterm.o(.text) refers to arm_exceptions_globs.o(.text) for __cxa_get_globals
    arm_exceptions_callterm.o(.text) refers to arm_exceptions_support.o(.text) for __ARM::is_foreign_exception(_Unwind_Control_Block*)
    arm_exceptions_callterm.o(.text) refers to arm_exceptions_terminate.o(.text) for std::terminate()
    arm_exceptions_callterm.o(.ARM.exidx) refers to arm_exceptions_callterm.o(.text) for .text
    printf1.o(x$fpl$printf1) refers to _printf_fp_dec.o(.text) for _printf_fp_dec_real
    __rtentry2.o(.ARM.Collect$$rtentry$$00000008) refers to rtx_lib.o(i._platform_post_stackheap_init) for _platform_post_stackheap_init
    __rtentry2.o(.ARM.Collect$$rtentry$$0000000A) refers to libinit.o(.ARM.Collect$$libinit$$00000000) for __rt_lib_init
    __rtentry2.o(.ARM.Collect$$rtentry$$0000000B) refers to boardinit3.o(.text) for _platform_post_lib_init
    __rtentry2.o(.ARM.Collect$$rtentry$$0000000D) refers to main.o(i.main) for main
    __rtentry2.o(.ARM.Collect$$rtentry$$0000000D) refers to exit.o(.text) for exit
    __rtentry2.o(.ARM.exidx) refers to __rtentry2.o(.ARM.Collect$$rtentry$$00000001) for .ARM.Collect$$rtentry$$00000001
    __rtentry2.o(.ARM.exidx) refers to __rtentry2.o(.ARM.Collect$$rtentry$$00000008) for .ARM.Collect$$rtentry$$00000008
    __rtentry2.o(.ARM.exidx) refers to __rtentry2.o(.ARM.Collect$$rtentry$$0000000A) for .ARM.Collect$$rtentry$$0000000A
    __rtentry2.o(.ARM.exidx) refers to __rtentry2.o(.ARM.Collect$$rtentry$$0000000B) for .ARM.Collect$$rtentry$$0000000B
    __rtentry2.o(.ARM.exidx) refers to __rtentry2.o(.ARM.Collect$$rtentry$$0000000D) for .ARM.Collect$$rtentry$$0000000D
    __rtentry4.o(.ARM.Collect$$rtentry$$00000004) refers to sys_stackheap_outer.o(.text) for __user_setup_stackheap
    __rtentry4.o(.ARM.exidx) refers to __rtentry4.o(.ARM.Collect$$rtentry$$00000004) for .ARM.Collect$$rtentry$$00000004
    rt_raise.o(.text) refers to __raise.o(.text) for __raise
    rt_raise.o(.text) refers to sys_exit.o(.text) for _sys_exit
    _printf_intcommon.o(.text) refers (Weak) to _printf_pad.o(.text) for _printf_pre_padding
    _printf_intcommon.o(.text) refers (Weak) to _printf_pad.o(.text) for _printf_pre_padding
    _printf_intcommon.o(.text) refers (Weak) to _printf_pad.o(.text) for _printf_post_padding
    _printf_fp_dec.o(.text) refers (Special) to usenofp.o(x$fpl$usenofp) for __I$use$fp
    _printf_fp_dec.o(.text) refers (Special) to lc_numeric_c.o(locale$$code) for _get_lc_numeric
    _printf_fp_dec.o(.text) refers to bigflt0.o(.text) for _btod_etento
    _printf_fp_dec.o(.text) refers to btod.o(CL$$btod_d2e) for _btod_d2e
    _printf_fp_dec.o(.text) refers to btod.o(CL$$btod_ediv) for _btod_ediv
    _printf_fp_dec.o(.text) refers to btod.o(CL$$btod_emul) for _btod_emul
    _printf_fp_dec.o(.text) refers to lludiv10.o(.text) for _ll_udiv10
    _printf_fp_dec.o(.text) refers to fpclassify.o(i.__ARM_fpclassify) for __ARM_fpclassify
    _printf_fp_dec.o(.text) refers to _printf_fp_infnan.o(.text) for _printf_fp_infnan
    _printf_fp_dec.o(.text) refers (Weak) to _printf_pad.o(.text) for _printf_pre_padding
    _printf_fp_dec.o(.text) refers (Weak) to _printf_pad.o(.text) for _printf_pre_padding
    _printf_fp_dec.o(.text) refers to rt_locale_twolibspace.o(.text) for __rt_locale
    _printf_fp_dec.o(.text) refers (Weak) to _printf_pad.o(.text) for _printf_post_padding
    _printf_char.o(.text) refers (Weak) to _printf_str.o(.text) for _printf_str
    _printf_wchar.o(.text) refers (Weak) to _printf_wctomb.o(.text) for _printf_wctomb
    _wcrtomb.o(.text) refers to rt_ctype_table.o(.text) for __rt_ctype_table
    defsig_exit.o(.text) refers to sys_exit.o(.text) for _sys_exit
    defsig_pvfn_inner.o(.text) refers to defsig_general.o(.text) for __default_signal_display
    argv_veneer.o(.emb_text) refers to no_argv.o(.text) for __ARM_get_argv
    arm_begincatch_noexceptions.o(.ARM.exidx) refers to arm_begincatch_noexceptions.o(.text) for .text
    arm_exceptions_support.o(.text) refers to arm_exceptions_support.o(.constdata) for .constdata
    arm_exceptions_support.o(.ARM.exidx) refers to arm_exceptions_support.o(.text) for .text
    arm_exceptions_terminate.o(.text) refers to arm_exceptions_globs.o(.text) for __cxa_get_globals
    arm_exceptions_terminate.o(.text) refers to abort.o(.text) for abort
    arm_exceptions_terminate.o(.ARM.exidx) refers to arm_exceptions_terminate.o(.text) for .text
    arm_exceptions_globs.o(.text) refers to abort.o(.text) for abort
    arm_exceptions_globs.o(.text) refers to rt_eh_globals_addr_twolibspace.o(.text) for __rt_eh_globals_addr
    arm_exceptions_globs.o(.text) refers to h1_alloc_mt.o(.text) for malloc
    arm_exceptions_globs.o(.text) refers to arm_exceptions_mem.o(.text) for __ARM_exceptions_buffer_init
    arm_exceptions_globs.o(.ARM.exidx) refers to arm_exceptions_globs.o(.text) for .text
    sys_exit.o(.text) refers (Special) to use_no_semi.o(.text) for __I$use$semihosting
    sys_exit.o(.text) refers (Special) to indicate_semi.o(.text) for __semihosting_library_function
    sys_stackheap_outer.o(.text) refers to libspace.o(.text) for __user_perproc_libspace
    sys_stackheap_outer.o(.text) refers to startup_stm32f40_41xxx.o(.text) for __user_initial_stackheap
    rt_ctype_table.o(.text) refers to rt_locale_twolibspace.o(.text) for __rt_locale
    rt_ctype_table.o(.text) refers to lc_ctype_c.o(locale$$code) for _get_lc_ctype
    rt_locale.o(.text) refers to rt_locale.o(.bss) for __rt_locale_data
    rt_locale_intlibspace.o(.text) refers to libspace.o(.bss) for __libspace_start
    rt_locale_twolibspace.o(.text) refers to libspace.o(.text) for __user_perproc_libspace
    rt_eh_globals_addr.o(.text) refers to rt_eh_globals_addr.o(.bss) for __rt_eh_globals_addr_data
    rt_eh_globals_addr_intlibspace.o(.text) refers to libspace.o(.bss) for __libspace_start
    rt_eh_globals_addr_twolibspace.o(.text) refers to libspace.o(.text) for __user_perproc_libspace
    malloc.o(.text) refers (Special) to hguard.o(.text) for __heap$guard
    malloc.o(.text) refers (Special) to init_alloc.o(.text) for _init_alloc
    malloc.o(.text) refers to rt_heap_descriptor_twolibspace.o(.text) for __rt_heap_descriptor
    malloc.o(.text) refers to heapstubs.o(.text) for __Heap_Alloc
    h1_alloc.o(.text) refers (Special) to h1_init_mt.o(.text) for __Heap_Initialize
    h1_alloc.o(.text) refers to rt_heap_descriptor_twolibspace.o(.text) for __rt_heap_descriptor
    h1_alloc.o(.text) refers to init_alloc.o(.text) for __Heap_Full
    h1_alloc_mt.o(.text) refers (Special) to h1_init_mt.o(.text) for __Heap_Initialize
    h1_alloc_mt.o(.text) refers (Weak) to rtx_lib.o(i._mutex_acquire) for _mutex_acquire
    h1_alloc_mt.o(.text) refers (Weak) to rtx_lib.o(i._mutex_release) for _mutex_release
    h1_alloc_mt.o(.text) refers to init_alloc.o(.text) for __Heap_Full
    h1_alloc_mt.o(.text) refers (Weak) to rtx_lib.o(i._mutex_release) for _mutex_release
    h1_alloc_mt.o(.text) refers to rt_heap_descriptor_twolibspace.o(.text) for __rt_heap_descriptor
    heap2.o(i._FDIterate) refers to heap2.o(.conststring) for .conststring
    heap2.o(i.___Heap_ProvideMemory$realtime) refers to fdtree.o(i._FDTree_Delete) for _FDTree_Delete
    heap2.o(i.___Heap_ProvideMemory$realtime) refers to fdtree.o(i._FDTree_Insert) for _FDTree_Insert
    heap2.o(i.___Heap_Stats$realtime) refers to heap2.o(i._Heap2_StatsIterate) for _Heap2_StatsIterate
    heap2.o(i.___Heap_Valid$realtime) refers to heap2.o(i._FDIterate) for _FDIterate
    heap2.o(i.___Heap_Valid$realtime) refers to heap2.o(.conststring) for .conststring
    heap2.o(i._free$realtime) refers to rt_heap_descriptor_twolibspace.o(.text) for __rt_heap_descriptor
    heap2.o(i._free$realtime) refers to fdtree.o(i._FDTree_Delete) for _FDTree_Delete
    heap2.o(i._free$realtime) refers to fdtree.o(i._FDTree_Insert) for _FDTree_Insert
    heap2.o(i._malloc$realtime) refers to rt_heap_descriptor_twolibspace.o(.text) for __rt_heap_descriptor
    heap2.o(i._malloc$realtime) refers to fdtree.o(i._FDTree_FindFirst) for _FDTree_FindFirst
    heap2.o(i._malloc$realtime) refers to init_alloc.o(.text) for __Heap_Full
    heap2.o(i._malloc$realtime) refers to fdtree.o(i._FDTree_RemoveNode) for _FDTree_RemoveNode
    heap2.o(i._malloc$realtime) refers to fdtree.o(i._FDTree_Insert) for _FDTree_Insert
    heap2.o(i._posix_memalign$realtime) refers to rt_heap_descriptor_twolibspace.o(.text) for __rt_heap_descriptor
    heap2.o(i._posix_memalign$realtime) refers to fdtree.o(i._FDTree_FindFirst) for _FDTree_FindFirst
    heap2.o(i._posix_memalign$realtime) refers to init_alloc.o(.text) for __Heap_Full
    heap2.o(i._posix_memalign$realtime) refers to fdtree.o(i._FDTree_RemoveNode) for _FDTree_RemoveNode
    heap2.o(i._posix_memalign$realtime) refers to fdtree.o(i._FDTree_Insert) for _FDTree_Insert
    heap2.o(i._realloc$realtime) refers to rt_heap_descriptor_twolibspace.o(.text) for __rt_heap_descriptor
    heap2.o(i._realloc$realtime) refers to fdtree.o(i._FDTree_Insert) for _FDTree_Insert
    heap2.o(i._realloc$realtime) refers to h1_free_mt.o(.text) for free
    heap2.o(i._realloc$realtime) refers to h1_alloc_mt.o(.text) for malloc
    heap2.o(i._realloc$realtime) refers to fdtree.o(i._FDTree_Delete) for _FDTree_Delete
    heap2.o(i._realloc$realtime) refers to rt_memcpy_w.o(.text) for __aeabi_memcpy4
    heap2mt.o(i._FDIterate) refers to heap2mt.o(.conststring) for .conststring
    heap2mt.o(i.___Heap_Finalize$realtime$concurrent) refers (Weak) to rtx_lib.o(i._mutex_free) for _mutex_free
    heap2mt.o(i.___Heap_Initialize$realtime$concurrent) refers to rtx_lib.o(i._mutex_initialize) for _mutex_initialize
    heap2mt.o(i.___Heap_ProvideMemory$realtime$concurrent) refers to fdtree.o(i._FDTree_Delete) for _FDTree_Delete
    heap2mt.o(i.___Heap_ProvideMemory$realtime$concurrent) refers to fdtree.o(i._FDTree_Insert) for _FDTree_Insert
    heap2mt.o(i.___Heap_Stats$realtime$concurrent) refers (Weak) to rtx_lib.o(i._mutex_acquire) for _mutex_acquire
    heap2mt.o(i.___Heap_Stats$realtime$concurrent) refers to heap2mt.o(i._Heap2_StatsIterate) for _Heap2_StatsIterate
    heap2mt.o(i.___Heap_Stats$realtime$concurrent) refers (Weak) to rtx_lib.o(i._mutex_release) for _mutex_release
    heap2mt.o(i.___Heap_Valid$realtime$concurrent) refers (Weak) to rtx_lib.o(i._mutex_acquire) for _mutex_acquire
    heap2mt.o(i.___Heap_Valid$realtime$concurrent) refers to heap2mt.o(i._FDIterate) for _FDIterate
    heap2mt.o(i.___Heap_Valid$realtime$concurrent) refers (Weak) to rtx_lib.o(i._mutex_release) for _mutex_release
    heap2mt.o(i.___Heap_Valid$realtime$concurrent) refers to heap2mt.o(.conststring) for .conststring
    heap2mt.o(i._free$realtime$concurrent) refers to rt_heap_descriptor_twolibspace.o(.text) for __rt_heap_descriptor
    heap2mt.o(i._free$realtime$concurrent) refers (Weak) to rtx_lib.o(i._mutex_acquire) for _mutex_acquire
    heap2mt.o(i._free$realtime$concurrent) refers to fdtree.o(i._FDTree_Delete) for _FDTree_Delete
    heap2mt.o(i._free$realtime$concurrent) refers to fdtree.o(i._FDTree_Insert) for _FDTree_Insert
    heap2mt.o(i._free$realtime$concurrent) refers (Weak) to rtx_lib.o(i._mutex_release) for _mutex_release
    heap2mt.o(i._malloc$realtime$concurrent) refers to rt_heap_descriptor_twolibspace.o(.text) for __rt_heap_descriptor
    heap2mt.o(i._malloc$realtime$concurrent) refers (Weak) to rtx_lib.o(i._mutex_acquire) for _mutex_acquire
    heap2mt.o(i._malloc$realtime$concurrent) refers to fdtree.o(i._FDTree_FindFirst) for _FDTree_FindFirst
    heap2mt.o(i._malloc$realtime$concurrent) refers to init_alloc.o(.text) for __Heap_Full
    heap2mt.o(i._malloc$realtime$concurrent) refers to fdtree.o(i._FDTree_RemoveNode) for _FDTree_RemoveNode
    heap2mt.o(i._malloc$realtime$concurrent) refers to fdtree.o(i._FDTree_Insert) for _FDTree_Insert
    heap2mt.o(i._malloc$realtime$concurrent) refers (Weak) to rtx_lib.o(i._mutex_release) for _mutex_release
    heap2mt.o(i._malloc$realtime$concurrent) refers (Weak) to rtx_lib.o(i._mutex_release) for _mutex_release
    heap2mt.o(i._posix_memalign$realtime$concurrent) refers to rt_heap_descriptor_twolibspace.o(.text) for __rt_heap_descriptor
    heap2mt.o(i._posix_memalign$realtime$concurrent) refers (Weak) to rtx_lib.o(i._mutex_acquire) for _mutex_acquire
    heap2mt.o(i._posix_memalign$realtime$concurrent) refers to fdtree.o(i._FDTree_FindFirst) for _FDTree_FindFirst
    heap2mt.o(i._posix_memalign$realtime$concurrent) refers to init_alloc.o(.text) for __Heap_Full
    heap2mt.o(i._posix_memalign$realtime$concurrent) refers to fdtree.o(i._FDTree_RemoveNode) for _FDTree_RemoveNode
    heap2mt.o(i._posix_memalign$realtime$concurrent) refers to fdtree.o(i._FDTree_Insert) for _FDTree_Insert
    heap2mt.o(i._posix_memalign$realtime$concurrent) refers (Weak) to rtx_lib.o(i._mutex_release) for _mutex_release
    heap2mt.o(i._realloc$realtime$concurrent) refers to rt_heap_descriptor_twolibspace.o(.text) for __rt_heap_descriptor
    heap2mt.o(i._realloc$realtime$concurrent) refers (Weak) to rtx_lib.o(i._mutex_acquire) for _mutex_acquire
    heap2mt.o(i._realloc$realtime$concurrent) refers to fdtree.o(i._FDTree_Insert) for _FDTree_Insert
    heap2mt.o(i._realloc$realtime$concurrent) refers to h1_free_mt.o(.text) for free
    heap2mt.o(i._realloc$realtime$concurrent) refers to h1_alloc_mt.o(.text) for malloc
    heap2mt.o(i._realloc$realtime$concurrent) refers to fdtree.o(i._FDTree_Delete) for _FDTree_Delete
    heap2mt.o(i._realloc$realtime$concurrent) refers (Weak) to rtx_lib.o(i._mutex_release) for _mutex_release
    heap2mt.o(i._realloc$realtime$concurrent) refers to rt_memcpy_w.o(.text) for __aeabi_memcpy4
    heap2mt.o(i._realloc$realtime$concurrent) refers (Weak) to rtx_lib.o(i._mutex_release) for _mutex_release
    heap2mt.o(i._realloc$realtime$concurrent) refers (Weak) to rtx_lib.o(i._mutex_release) for _mutex_release
    _printf_fp_infnan.o(.text) refers (Weak) to _printf_pad.o(.text) for _printf_pre_padding
    _printf_fp_infnan.o(.text) refers (Weak) to _printf_pad.o(.text) for _printf_post_padding
    bigflt0.o(.text) refers (Special) to usenofp.o(x$fpl$usenofp) for __I$use$fp
    bigflt0.o(.text) refers to btod.o(CL$$btod_emul) for _btod_emul
    bigflt0.o(.text) refers to btod.o(CL$$btod_ediv) for _btod_ediv
    bigflt0.o(.text) refers to bigflt0.o(.constdata) for .constdata
    bigflt0.o(.constdata) refers (Special) to usenofp.o(x$fpl$usenofp) for __I$use$fp
    btod.o(CL$$btod_d2e) refers (Special) to usenofp.o(x$fpl$usenofp) for __I$use$fp
    btod.o(CL$$btod_d2e) refers to btod.o(CL$$btod_d2e_norm_op1) for _d2e_norm_op1
    btod.o(CL$$btod_d2e_norm_op1) refers (Special) to usenofp.o(x$fpl$usenofp) for __I$use$fp
    btod.o(CL$$btod_d2e_norm_op1) refers to btod.o(CL$$btod_d2e_denorm_low) for _d2e_denorm_low
    btod.o(CL$$btod_d2e_denorm_low) refers (Special) to usenofp.o(x$fpl$usenofp) for __I$use$fp
    btod.o(CL$$btod_emul) refers (Special) to usenofp.o(x$fpl$usenofp) for __I$use$fp
    btod.o(CL$$btod_emul) refers to btod.o(CL$$btod_mult_common) for __btod_mult_common
    btod.o(CL$$btod_emul) refers to btod.o(CL$$btod_e2e) for _e2e
    btod.o(CL$$btod_ediv) refers (Special) to usenofp.o(x$fpl$usenofp) for __I$use$fp
    btod.o(CL$$btod_ediv) refers to btod.o(CL$$btod_div_common) for __btod_div_common
    btod.o(CL$$btod_ediv) refers to btod.o(CL$$btod_e2e) for _e2e
    btod.o(CL$$btod_emuld) refers (Special) to usenofp.o(x$fpl$usenofp) for __I$use$fp
    btod.o(CL$$btod_emuld) refers to btod.o(CL$$btod_mult_common) for __btod_mult_common
    btod.o(CL$$btod_emuld) refers to btod.o(CL$$btod_e2d) for _e2d
    btod.o(CL$$btod_edivd) refers (Special) to usenofp.o(x$fpl$usenofp) for __I$use$fp
    btod.o(CL$$btod_edivd) refers to btod.o(CL$$btod_div_common) for __btod_div_common
    btod.o(CL$$btod_edivd) refers to btod.o(CL$$btod_e2d) for _e2d
    btod.o(CL$$btod_e2e) refers (Special) to usenofp.o(x$fpl$usenofp) for __I$use$fp
    btod.o(CL$$btod_e2d) refers (Special) to usenofp.o(x$fpl$usenofp) for __I$use$fp
    btod.o(CL$$btod_e2d) refers to btod.o(CL$$btod_e2e) for _e2e
    btod.o(CL$$btod_mult_common) refers (Special) to usenofp.o(x$fpl$usenofp) for __I$use$fp
    btod.o(CL$$btod_div_common) refers (Special) to usenofp.o(x$fpl$usenofp) for __I$use$fp
    lc_numeric_c.o(locale$$data) refers (Special) to libinit2.o(.ARM.Collect$$libinit$$00000016) for __rt_lib_init_lc_numeric_2
    lc_numeric_c.o(locale$$code) refers (Special) to libinit2.o(.ARM.Collect$$libinit$$00000016) for __rt_lib_init_lc_numeric_2
    lc_numeric_c.o(locale$$code) refers to strcmpv7m.o(.text) for strcmp
    lc_numeric_c.o(locale$$code) refers to lc_numeric_c.o(locale$$data) for __lcnum_c_name
    exit.o(.text) refers to rtexit.o(.ARM.Collect$$rtexit$$00000000) for __rt_exit
    abort.o(.text) refers to defsig_abrt_outer.o(.text) for __rt_SIGABRT
    abort.o(.text) refers (Weak) to libshutdown.o(.ARM.Collect$$libshutdown$$00000000) for __rt_lib_shutdown
    abort.o(.text) refers to sys_exit.o(.text) for _sys_exit
    __raise.o(.text) refers to defsig.o(CL$$defsig) for __default_signal_handler
    defsig_general.o(.text) refers to sys_wrch.o(.text) for _ttywrch
    _get_argv_nomalloc.o(.text) refers (Special) to hrguard.o(.text) for __heap_region$guard
    _get_argv_nomalloc.o(.text) refers to defsig_rtmem_outer.o(.text) for __rt_SIGRTMEM
    _get_argv_nomalloc.o(.text) refers to sys_command.o(.text) for _sys_command_string
    libinit.o(.ARM.Collect$$libinit$$00000000) refers (Special) to libinit2.o(.ARM.Collect$$libinit$$0000002E) for __rt_lib_init_alloca_1
    libinit.o(.ARM.Collect$$libinit$$00000000) refers (Special) to libinit2.o(.ARM.Collect$$libinit$$0000002C) for __rt_lib_init_argv_1
    libinit.o(.ARM.Collect$$libinit$$00000000) refers (Special) to libinit2.o(.ARM.Collect$$libinit$$0000001B) for __rt_lib_init_atexit_1
    libinit.o(.ARM.Collect$$libinit$$00000000) refers (Special) to libinit2.o(.ARM.Collect$$libinit$$00000021) for __rt_lib_init_clock_1
    libinit.o(.ARM.Collect$$libinit$$00000000) refers (Special) to libinit2.o(.ARM.Collect$$libinit$$00000032) for __rt_lib_init_cpp_1
    libinit.o(.ARM.Collect$$libinit$$00000000) refers (Special) to libinit2.o(.ARM.Collect$$libinit$$00000030) for __rt_lib_init_exceptions_1
    libinit.o(.ARM.Collect$$libinit$$00000000) refers (Special) to libinit2.o(.ARM.Collect$$libinit$$00000001) for __rt_lib_init_fp_1
    libinit.o(.ARM.Collect$$libinit$$00000000) refers (Special) to libinit2.o(.ARM.Collect$$libinit$$0000001F) for __rt_lib_init_fp_trap_1
    libinit.o(.ARM.Collect$$libinit$$00000000) refers (Special) to libinit2.o(.ARM.Collect$$libinit$$00000023) for __rt_lib_init_getenv_1
    libinit.o(.ARM.Collect$$libinit$$00000000) refers (Special) to libinit2.o(.ARM.Collect$$libinit$$0000000A) for __rt_lib_init_heap_1
    libinit.o(.ARM.Collect$$libinit$$00000000) refers (Special) to libinit2.o(.ARM.Collect$$libinit$$00000011) for __rt_lib_init_lc_collate_1
    libinit.o(.ARM.Collect$$libinit$$00000000) refers (Special) to libinit2.o(.ARM.Collect$$libinit$$00000013) for __rt_lib_init_lc_ctype_1
    libinit.o(.ARM.Collect$$libinit$$00000000) refers (Special) to libinit2.o(.ARM.Collect$$libinit$$00000015) for __rt_lib_init_lc_monetary_1
    libinit.o(.ARM.Collect$$libinit$$00000000) refers (Special) to libinit2.o(.ARM.Collect$$libinit$$00000017) for __rt_lib_init_lc_numeric_1
    libinit.o(.ARM.Collect$$libinit$$00000000) refers (Special) to libinit2.o(.ARM.Collect$$libinit$$00000019) for __rt_lib_init_lc_time_1
    libinit.o(.ARM.Collect$$libinit$$00000000) refers (Special) to libinit2.o(.ARM.Collect$$libinit$$00000004) for __rt_lib_init_preinit_1
    libinit.o(.ARM.Collect$$libinit$$00000000) refers (Special) to libinit2.o(.ARM.Collect$$libinit$$0000000E) for __rt_lib_init_rand_1
    libinit.o(.ARM.Collect$$libinit$$00000000) refers (Special) to libinit2.o(.ARM.Collect$$libinit$$00000033) for __rt_lib_init_return
    libinit.o(.ARM.Collect$$libinit$$00000000) refers (Special) to libinit2.o(.ARM.Collect$$libinit$$0000001D) for __rt_lib_init_signal_1
    libinit.o(.ARM.Collect$$libinit$$00000000) refers (Special) to libinit2.o(.ARM.Collect$$libinit$$00000025) for __rt_lib_init_stdio_1
    libinit.o(.ARM.Collect$$libinit$$00000000) refers (Special) to libinit2.o(.ARM.Collect$$libinit$$0000000C) for __rt_lib_init_user_alloc_1
    arm_exceptions_mem.o(.text) refers to h1_alloc_mt.o(.text) for malloc
    arm_exceptions_mem.o(.ARM.exidx) refers to arm_exceptions_mem.o(.text) for .text
    istatus.o(x$fpl$ieeestatus) refers (Special) to usenofp.o(x$fpl$usenofp) for __I$use$fp
    fpclassify.o(i.__ARM_fpclassify) refers (Special) to usenofp.o(x$fpl$usenofp) for __I$use$fp
    sys_wrch.o(.text) refers (Special) to use_no_semi.o(.text) for __I$use$semihosting
    sys_wrch.o(.text) refers (Special) to indicate_semi.o(.text) for __semihosting_library_function
    sys_command.o(.text) refers (Special) to use_no_semi.o(.text) for __I$use$semihosting
    sys_command.o(.text) refers (Special) to indicate_semi.o(.text) for __semihosting_library_function
    libspace.o(.text) refers to libspace.o(.bss) for __libspace_start
    rtexit.o(.ARM.Collect$$rtexit$$00000000) refers (Special) to rtexit2.o(.ARM.Collect$$rtexit$$00000004) for __rt_exit_exit
    rtexit.o(.ARM.Collect$$rtexit$$00000000) refers (Special) to rtexit2.o(.ARM.Collect$$rtexit$$00000003) for __rt_exit_ls
    rtexit.o(.ARM.Collect$$rtexit$$00000000) refers (Special) to rtexit2.o(.ARM.Collect$$rtexit$$00000002) for __rt_exit_prels_1
    rtexit.o(.ARM.exidx) refers (Special) to rtexit2.o(.ARM.Collect$$rtexit$$00000004) for __rt_exit_exit
    rtexit.o(.ARM.exidx) refers (Special) to rtexit2.o(.ARM.Collect$$rtexit$$00000003) for __rt_exit_ls
    rtexit.o(.ARM.exidx) refers (Special) to rtexit2.o(.ARM.Collect$$rtexit$$00000002) for __rt_exit_prels_1
    rtexit.o(.ARM.exidx) refers to rtexit.o(.ARM.Collect$$rtexit$$00000000) for .ARM.Collect$$rtexit$$00000000
    rt_heap_descriptor.o(.text) refers to rt_heap_descriptor.o(.bss) for __rt_heap_descriptor_data
    rt_heap_descriptor_intlibspace.o(.text) refers to libspace.o(.bss) for __libspace_start
    rt_heap_descriptor_twolibspace.o(.text) refers to libspace.o(.text) for __user_perproc_libspace
    init_alloc.o(.text) refers (Special) to hguard.o(.text) for __heap$guard
    init_alloc.o(.text) refers (Special) to libinit2.o(.ARM.Collect$$libinit$$00000005) for __rt_lib_init_heap_2
    init_alloc.o(.text) refers (Special) to maybetermalloc2.o(.emb_text) for _maybe_terminate_alloc
    init_alloc.o(.text) refers to h1_extend_mt.o(.text) for __Heap_ProvideMemory
    init_alloc.o(.text) refers to defsig_rtmem_outer.o(.text) for __rt_SIGRTMEM
    init_alloc.o(.text) refers to rt_heap_descriptor_twolibspace.o(.text) for __rt_heap_descriptor
    init_alloc.o(.text) refers to h1_init_mt.o(.text) for __Heap_Initialize
    free.o(.text) refers (Special) to hguard.o(.text) for __heap$guard
    free.o(.text) refers to rt_heap_descriptor_twolibspace.o(.text) for __rt_heap_descriptor
    free.o(.text) refers to heapstubs.o(.text) for __Heap_Free
    h1_free.o(.text) refers to rt_heap_descriptor_twolibspace.o(.text) for __rt_heap_descriptor
    h1_init_mt.o(.text) refers to rtx_lib.o(i._mutex_initialize) for _mutex_initialize
    h1_free_mt.o(.text) refers (Weak) to rtx_lib.o(i._mutex_acquire) for _mutex_acquire
    h1_free_mt.o(.text) refers (Weak) to rtx_lib.o(i._mutex_release) for _mutex_release
    h1_free_mt.o(.text) refers to rt_heap_descriptor_twolibspace.o(.text) for __rt_heap_descriptor
    lc_ctype_c.o(locale$$data) refers (Special) to libinit2.o(.ARM.Collect$$libinit$$00000012) for __rt_lib_init_lc_ctype_2
    lc_ctype_c.o(locale$$code) refers (Special) to libinit2.o(.ARM.Collect$$libinit$$00000012) for __rt_lib_init_lc_ctype_2
    lc_ctype_c.o(locale$$code) refers to strcmpv7m.o(.text) for strcmp
    lc_ctype_c.o(locale$$code) refers to lc_ctype_c.o(locale$$data) for __lcctype_c_name
    defsig_abrt_outer.o(.text) refers to defsig_abrt_inner.o(.text) for __rt_SIGABRT_inner
    defsig_abrt_outer.o(.text) refers to defsig_exit.o(.text) for __sig_exit
    defsig_abrt_formal.o(.text) refers to rt_raise.o(.text) for __rt_raise
    defsig_rtmem_outer.o(.text) refers to defsig_rtmem_inner.o(.text) for __rt_SIGRTMEM_inner
    defsig_rtmem_outer.o(.text) refers to defsig_exit.o(.text) for __sig_exit
    defsig_rtmem_formal.o(.text) refers to rt_raise.o(.text) for __rt_raise
    defsig.o(CL$$defsig) refers to defsig_abrt_inner.o(.text) for __rt_SIGABRT_inner
    defsig.o(CL$$defsig) refers to defsig_rtmem_inner.o(.text) for __rt_SIGRTMEM_inner
    defsig.o(CL$$defsig) refers to defsig_pvfn_inner.o(.text) for __rt_SIGPVFN_inner
    _get_argv.o(.text) refers (Special) to hrguard.o(.text) for __heap_region$guard
    _get_argv.o(.text) refers to h1_alloc_mt.o(.text) for malloc
    _get_argv.o(.text) refers to defsig_rtmem_outer.o(.text) for __rt_SIGRTMEM
    _get_argv.o(.text) refers to sys_command.o(.text) for _sys_command_string
    rtexit2.o(.ARM.Collect$$rtexit$$00000003) refers to libshutdown.o(.ARM.Collect$$libshutdown$$00000000) for __rt_lib_shutdown
    rtexit2.o(.ARM.Collect$$rtexit$$00000004) refers to sys_exit.o(.text) for _sys_exit
    rtexit2.o(.ARM.exidx) refers to rtexit2.o(.ARM.Collect$$rtexit$$00000001) for .ARM.Collect$$rtexit$$00000001
    rtexit2.o(.ARM.exidx) refers to rtexit2.o(.ARM.Collect$$rtexit$$00000003) for .ARM.Collect$$rtexit$$00000003
    rtexit2.o(.ARM.exidx) refers to rtexit2.o(.ARM.Collect$$rtexit$$00000004) for .ARM.Collect$$rtexit$$00000004
    maybetermalloc2.o(.emb_text) refers (Special) to term_alloc.o(.text) for _terminate_alloc
    h1_extend.o(.text) refers to h1_free_mt.o(.text) for free
    h1_extend_mt.o(.text) refers to h1_free_mt.o(.text) for _free_internal
    defsig_abrt_inner.o(.text) refers to defsig_general.o(.text) for __default_signal_display
    defsig_fpe_inner.o(.text) refers to defsig_general.o(.text) for __default_signal_display
    defsig_rtred_inner.o(.text) refers to defsig_general.o(.text) for __default_signal_display
    defsig_rtmem_inner.o(.text) refers to defsig_general.o(.text) for __default_signal_display
    defsig_stak_inner.o(.text) refers to defsig_general.o(.text) for __default_signal_display
    defsig_cppl_inner.o(.text) refers to defsig_general.o(.text) for __default_signal_display
    defsig_segv_inner.o(.text) refers to defsig_general.o(.text) for __default_signal_display
    defsig_other.o(.text) refers to defsig_general.o(.text) for __default_signal_display
    heapauxa.o(.text) refers to heapauxa.o(.data) for .data
    term_alloc.o(.text) refers (Special) to libshutdown2.o(.ARM.Collect$$libshutdown$$0000000D) for __rt_lib_shutdown_heap_2
    term_alloc.o(.text) refers to rt_heap_descriptor_twolibspace.o(.text) for __rt_heap_descriptor
    term_alloc.o(.text) refers to h1_final_mt.o(.text) for __Heap_Finalize
    libshutdown.o(.ARM.Collect$$libshutdown$$00000000) refers (Special) to libshutdown2.o(.ARM.Collect$$libshutdown$$00000002) for __rt_lib_shutdown_cpp_1
    libshutdown.o(.ARM.Collect$$libshutdown$$00000000) refers (Special) to libshutdown2.o(.ARM.Collect$$libshutdown$$00000007) for __rt_lib_shutdown_fp_trap_1
    libshutdown.o(.ARM.Collect$$libshutdown$$00000000) refers (Special) to libshutdown2.o(.ARM.Collect$$libshutdown$$0000000F) for __rt_lib_shutdown_heap_1
    libshutdown.o(.ARM.Collect$$libshutdown$$00000000) refers (Special) to libshutdown2.o(.ARM.Collect$$libshutdown$$00000010) for __rt_lib_shutdown_return
    libshutdown.o(.ARM.Collect$$libshutdown$$00000000) refers (Special) to libshutdown2.o(.ARM.Collect$$libshutdown$$0000000A) for __rt_lib_shutdown_signal_1
    libshutdown.o(.ARM.Collect$$libshutdown$$00000000) refers (Special) to libshutdown2.o(.ARM.Collect$$libshutdown$$00000004) for __rt_lib_shutdown_stdio_1
    libshutdown.o(.ARM.Collect$$libshutdown$$00000000) refers (Special) to libshutdown2.o(.ARM.Collect$$libshutdown$$0000000C) for __rt_lib_shutdown_user_alloc_1
    h1_final_mt.o(.text) refers (Weak) to rtx_lib.o(i._mutex_free) for _mutex_free
    libshutdown2.o(.ARM.Collect$$libshutdown$$0000000D) refers (Weak) to term_alloc.o(.text) for _terminate_alloc
    bluetoothevent.o(.constdata__ZTV14BluetoothEvent) refers to bluetoothevent.o(.constdata__ZTI14BluetoothEvent) for typeinfo for BluetoothEvent
    bluetoothevent.o(.constdata__ZTV14BluetoothEvent) refers to bluetoothevent.o(i._ZN14BluetoothEvent8onReturnEh) for BluetoothEvent::onReturn(unsigned char)
    bluetoothevent.o(.constdata__ZTV14BluetoothEvent) refers to bluetoothevent.o(i._ZN14BluetoothEvent14onStatusChangeEhhh) for BluetoothEvent::onStatusChange(unsigned char, unsigned char, unsigned char)
    bluetoothevent.o(.constdata__ZTV14BluetoothEvent) refers to bluetoothevent.o(i._ZN14BluetoothEvent8onResultEPKht) for BluetoothEvent::onResult(const unsigned char*, unsigned short)
    bluetoothevent.o(i._ZN9Bluetooth8instanceEv) refers to cxa_guard_acquire.o(i.__cxa_guard_acquire) for __cxa_guard_acquire
    bluetoothevent.o(i._ZN9Bluetooth8instanceEv) refers to bluetooth.o(i._ZN9BluetoothC1Ev) for Bluetooth::Bluetooth()
    bluetoothevent.o(i._ZN9Bluetooth8instanceEv) refers to bluetoothevent.o(.data__ZZN9Bluetooth8instanceEvE3ble) for guard variable for Bluetooth::instance()::ble
    bluetoothevent.o(i._ZN9Bluetooth8instanceEv) refers to bluetoothevent.o(.bss__ZZN9Bluetooth8instanceEvE3ble) for Bluetooth::instance()::ble
    bluetoothevent.o(.ARM.exidx) refers to bluetoothevent.o(i._ZN9Bluetooth8instanceEv) for i._ZN9Bluetooth8instanceEv
    bluetoothevent.o(i._ZN11FlashMemory8instanceEv) refers to cxa_guard_acquire.o(i.__cxa_guard_acquire) for __cxa_guard_acquire
    bluetoothevent.o(i._ZN11FlashMemory8instanceEv) refers to flashmemory.o(i._ZN11FlashMemoryC1Ev) for FlashMemory::FlashMemory()
    bluetoothevent.o(i._ZN11FlashMemory8instanceEv) refers to bluetoothevent.o(.data__ZZN11FlashMemory8instanceEvE1m) for guard variable for FlashMemory::instance()::m
    bluetoothevent.o(i._ZN11FlashMemory8instanceEv) refers to bluetoothevent.o(.bss__ZZN11FlashMemory8instanceEvE1m) for FlashMemory::instance()::m
    bluetoothevent.o(.ARM.exidx) refers to bluetoothevent.o(i._ZN11FlashMemory8instanceEv) for i._ZN11FlashMemory8instanceEv
    bluetoothevent.o(.ARM.exidx) refers to bluetoothevent.o(i._ZN8Protocol7append1Eh) for i._ZN8Protocol7append1Eh
    bluetoothevent.o(.constdata__ZTI14BluetoothEvent) refers to lib_rtti_impl.o(.constdata__ZTVN10__cxxabiv120__si_class_type_infoE) for vtable for __cxxabiv1::__si_class_type_info
    bluetoothevent.o(.constdata__ZTI14BluetoothEvent) refers to bluetoothevent.o(.constdata__ZTS14BluetoothEvent) for typeinfo name for BluetoothEvent
    bluetoothevent.o(.constdata__ZTI14BluetoothEvent) refers to event.o(.constdata__ZTI5Event) for typeinfo for Event
    event.o(.constdata__ZTV5Event) refers to event.o(.constdata__ZTI5Event) for typeinfo for Event
    event.o(.constdata__ZTV5Event) refers to event.o(i._ZN5Event8onReturnEh) for Event::onReturn(unsigned char)
    event.o(.constdata__ZTV5Event) refers to event.o(i._ZN5Event14onStatusChangeEhhh) for Event::onStatusChange(unsigned char, unsigned char, unsigned char)
    event.o(.constdata__ZTV5Event) refers to event.o(i._ZN5Event8onResultEPKht) for Event::onResult(const unsigned char*, unsigned short)
    event.o(.constdata__ZTI5Event) refers to lib_rtti_impl.o(.constdata__ZTVN10__cxxabiv117__class_type_infoE) for vtable for __cxxabiv1::__class_type_info
    event.o(.constdata__ZTI5Event) refers to event.o(.constdata__ZTS5Event) for typeinfo name for Event
    mainevent.o(.constdata__ZTV9MainEvent) refers to mainevent.o(.constdata__ZTI9MainEvent) for typeinfo for MainEvent
    mainevent.o(.constdata__ZTV9MainEvent) refers to event.o(i._ZN5Event8onReturnEh) for Event::onReturn(unsigned char)
    mainevent.o(.constdata__ZTV9MainEvent) refers to event.o(i._ZN5Event14onStatusChangeEhhh) for Event::onStatusChange(unsigned char, unsigned char, unsigned char)
    mainevent.o(.constdata__ZTV9MainEvent) refers to mainevent.o(i._ZN9MainEvent8onResultEPKht) for MainEvent::onResult(const unsigned char*, unsigned short)
    mainevent.o(i._ZN11DeliverTask8instanceEv) refers to cxa_guard_acquire.o(i.__cxa_guard_acquire) for __cxa_guard_acquire
    mainevent.o(i._ZN11DeliverTask8instanceEv) refers to delivertask.o(i._ZN11DeliverTaskC1Ev) for DeliverTask::DeliverTask()
    mainevent.o(i._ZN11DeliverTask8instanceEv) refers to bluetoothevent.o(.data__ZZN11DeliverTask8instanceEvE8INSTANCE) for guard variable for DeliverTask::instance()::INSTANCE
    mainevent.o(i._ZN11DeliverTask8instanceEv) refers to bluetoothevent.o(.bss__ZZN11DeliverTask8instanceEvE8INSTANCE) for DeliverTask::instance()::INSTANCE
    mainevent.o(.ARM.exidx) refers to mainevent.o(i._ZN11DeliverTask8instanceEv) for i._ZN11DeliverTask8instanceEv
    mainevent.o(i._ZN10OTAManager8instanceEv) refers to cxa_guard_acquire.o(i.__cxa_guard_acquire) for __cxa_guard_acquire
    mainevent.o(i._ZN10OTAManager8instanceEv) refers to otamanager.o(i._ZN10OTAManagerC1Ev) for OTAManager::OTAManager()
    mainevent.o(i._ZN10OTAManager8instanceEv) refers to mainevent.o(.data__ZZN10OTAManager8instanceEvE1t) for guard variable for OTAManager::instance()::t
    mainevent.o(i._ZN10OTAManager8instanceEv) refers to mainevent.o(.bss__ZZN10OTAManager8instanceEvE1t) for OTAManager::instance()::t
    mainevent.o(.ARM.exidx) refers to mainevent.o(i._ZN10OTAManager8instanceEv) for i._ZN10OTAManager8instanceEv
    mainevent.o(i._ZN8Receiver3putEPK5Event) refers to rtx_msgqueue.o(.text.osMessageQueuePut) for osMessageQueuePut
    mainevent.o(.ARM.exidx) refers to mainevent.o(i._ZN8Receiver3putEPK5Event) for i._ZN8Receiver3putEPK5Event
    mainevent.o(i._ZN8MainUart8instanceEv) refers to cxa_guard_acquire.o(i.__cxa_guard_acquire) for __cxa_guard_acquire
    mainevent.o(i._ZN8MainUart8instanceEv) refers to mainuart.o(i._ZN8MainUartC1Ev) for MainUart::MainUart()
    mainevent.o(i._ZN8MainUart8instanceEv) refers to mainevent.o(.data__ZZN8MainUart8instanceEvE4uart) for guard variable for MainUart::instance()::uart
    mainevent.o(i._ZN8MainUart8instanceEv) refers to mainevent.o(.bss__ZZN8MainUart8instanceEvE4uart) for MainUart::instance()::uart
    mainevent.o(.ARM.exidx) refers to mainevent.o(i._ZN8MainUart8instanceEv) for i._ZN8MainUart8instanceEv
    mainevent.o(.ARM.exidx) refers to mainevent.o(i._ZN8ProtocolC1EPh) for i._ZN8ProtocolC1EPh
    mainevent.o(.ARM.exidx) refers to mainevent.o(i._ZN8Protocol7append2Et) for i._ZN8Protocol7append2Et
    mainevent.o(i._ZN10OTAManager4initEj) refers to otamanager.o(i._ZN10OTAManager13setOTAMessageEj) for OTAManager::setOTAMessage(unsigned)
    mainevent.o(i._ZN10OTAManager4initEj) refers to mainevent.o(i._ZN8ProtocolC1EPh) for Protocol::Protocol(unsigned char*)
    mainevent.o(i._ZN10OTAManager4initEj) refers to mainevent.o(i._ZN8Protocol7append2Et) for Protocol::append2(unsigned short)
    mainevent.o(i._ZN10OTAManager4initEj) refers to protocol.o(i._ZN8Protocol5buildEPh) for Protocol::build(unsigned char*)
    mainevent.o(i._ZN10OTAManager4initEj) refers to mainevent.o(i._ZN8MainUart8instanceEv) for MainUart::instance()
    mainevent.o(i._ZN10OTAManager4initEj) refers to cxa_guard_acquire.o(i.__cxa_guard_acquire) for __cxa_guard_acquire
    mainevent.o(i._ZN10OTAManager4initEj) refers to flashmemory.o(i._ZN11FlashMemoryC1Ev) for FlashMemory::FlashMemory()
    mainevent.o(i._ZN10OTAManager4initEj) refers to flashmemory.o(i._ZN11FlashMemory12vSectorEarseEj) for FlashMemory::vSectorEarse(unsigned)
    mainevent.o(i._ZN10OTAManager4initEj) refers to bluetoothevent.o(.data__ZZN11FlashMemory8instanceEvE1m) for guard variable for FlashMemory::instance()::m
    mainevent.o(i._ZN10OTAManager4initEj) refers to bluetoothevent.o(.bss__ZZN11FlashMemory8instanceEvE1m) for FlashMemory::instance()::m
    mainevent.o(.ARM.exidx) refers to mainevent.o(i._ZN10OTAManager4initEj) for i._ZN10OTAManager4initEj
    mainevent.o(.constdata__ZTI9MainEvent) refers to lib_rtti_impl.o(.constdata__ZTVN10__cxxabiv120__si_class_type_infoE) for vtable for __cxxabiv1::__si_class_type_info
    mainevent.o(.constdata__ZTI9MainEvent) refers to mainevent.o(.constdata__ZTS9MainEvent) for typeinfo name for MainEvent
    mainevent.o(.constdata__ZTI9MainEvent) refers to event.o(.constdata__ZTI5Event) for typeinfo for Event
    logevent.o(.constdata__ZTV8LogEvent) refers to logevent.o(.constdata__ZTI8LogEvent) for typeinfo for LogEvent
    logevent.o(.constdata__ZTV8LogEvent) refers to logevent.o(i._ZN8LogEvent8onReturnEh) for LogEvent::onReturn(unsigned char)
    logevent.o(.constdata__ZTV8LogEvent) refers to logevent.o(i._ZN8LogEvent14onStatusChangeEhhh) for LogEvent::onStatusChange(unsigned char, unsigned char, unsigned char)
    logevent.o(.constdata__ZTV8LogEvent) refers to event.o(i._ZN5Event8onResultEPKht) for Event::onResult(const unsigned char*, unsigned short)
    logevent.o(i._ZN7LogUart8instanceEv) refers to cxa_guard_acquire.o(i.__cxa_guard_acquire) for __cxa_guard_acquire
    logevent.o(i._ZN7LogUart8instanceEv) refers to loguart.o(i._ZN7LogUartC1Ev) for LogUart::LogUart()
    logevent.o(i._ZN7LogUart8instanceEv) refers to logevent.o(.data__ZZN7LogUart8instanceEvE4uart) for guard variable for LogUart::instance()::uart
    logevent.o(i._ZN7LogUart8instanceEv) refers to logevent.o(.bss__ZZN7LogUart8instanceEvE4uart) for LogUart::instance()::uart
    logevent.o(.ARM.exidx) refers to logevent.o(i._ZN7LogUart8instanceEv) for i._ZN7LogUart8instanceEv
    logevent.o(i._ZN12BaseProtocol5writeEv) refers to logevent.o(i._ZN7LogUart8instanceEv) for LogUart::instance()
    logevent.o(.ARM.exidx) refers to logevent.o(i._ZN12BaseProtocol5writeEv) for i._ZN12BaseProtocol5writeEv
    logevent.o(.constdata__ZTI8LogEvent) refers to lib_rtti_impl.o(.constdata__ZTVN10__cxxabiv120__si_class_type_infoE) for vtable for __cxxabiv1::__si_class_type_info
    logevent.o(.constdata__ZTI8LogEvent) refers to logevent.o(.constdata__ZTS8LogEvent) for typeinfo name for LogEvent
    logevent.o(.constdata__ZTI8LogEvent) refers to event.o(.constdata__ZTI5Event) for typeinfo for Event
    boottask.o(.constdata__ZTV8BootTask) refers to boottask.o(.constdata__ZTI8BootTask) for typeinfo for BootTask
    boottask.o(.constdata__ZTV8BootTask) refers to boottask.o(i._ZN8BootTask3runEv) for BootTask::run()
    boottask.o(.constdata__ZTI8BootTask) refers to lib_rtti_impl.o(.constdata__ZTVN10__cxxabiv120__si_class_type_infoE) for vtable for __cxxabiv1::__si_class_type_info
    boottask.o(.constdata__ZTI8BootTask) refers to boottask.o(.constdata__ZTS8BootTask) for typeinfo name for BootTask
    boottask.o(.constdata__ZTI8BootTask) refers to boottask.o(.constdata__ZTI4Task) for typeinfo for Task
    boottask.o(.constdata__ZTI4Task) refers to lib_rtti_impl.o(.constdata__ZTVN10__cxxabiv117__class_type_infoE) for vtable for __cxxabiv1::__class_type_info
    boottask.o(.constdata__ZTI4Task) refers to boottask.o(.constdata__ZTS4Task) for typeinfo name for Task
    task.o(.constdata__ZTV4Task) refers to boottask.o(.constdata__ZTI4Task) for typeinfo for Task
    task.o(.constdata__ZTV4Task) refers to pure_virt.o(i.__cxa_pure_virtual) for __cxa_pure_virtual
    statusupdatetask.o(.constdata__ZTV16StatusUpdateTask) refers to statusupdatetask.o(.constdata__ZTI16StatusUpdateTask) for typeinfo for StatusUpdateTask
    statusupdatetask.o(.constdata__ZTV16StatusUpdateTask) refers to statusupdatetask.o(i._ZN16StatusUpdateTask3runEv) for StatusUpdateTask::run()
    statusupdatetask.o(.ARM.exidx) refers to statusupdatetask.o(i._ZN10BaseOutput9setActionEh) for i._ZN10BaseOutput9setActionEh
    statusupdatetask.o(.ARM.exidx) refers to statusupdatetask.o(i._ZN10BaseOutput7append2Et) for i._ZN10BaseOutput7append2Et
    statusupdatetask.o(.ARM.exidx) refers to statusupdatetask.o(i._ZN10BaseOutput7append1Eh) for i._ZN10BaseOutput7append1Eh
    statusupdatetask.o(i._ZN10BaseOutput13buildAndWriteEv) refers to baseoutput.o(i._ZN10BaseOutput5buildEPh) for BaseOutput::build(unsigned char*)
    statusupdatetask.o(.ARM.exidx) refers to statusupdatetask.o(i._ZN10BaseOutput13buildAndWriteEv) for i._ZN10BaseOutput13buildAndWriteEv
    statusupdatetask.o(.constdata__ZTI16StatusUpdateTask) refers to lib_rtti_impl.o(.constdata__ZTVN10__cxxabiv120__si_class_type_infoE) for vtable for __cxxabiv1::__si_class_type_info
    statusupdatetask.o(.constdata__ZTI16StatusUpdateTask) refers to statusupdatetask.o(.constdata__ZTS16StatusUpdateTask) for typeinfo name for StatusUpdateTask
    statusupdatetask.o(.constdata__ZTI16StatusUpdateTask) refers to boottask.o(.constdata__ZTI4Task) for typeinfo for Task
    messagedispensetask.o(.constdata__ZTV19MessageDispenseTask) refers to messagedispensetask.o(.constdata__ZTI19MessageDispenseTask) for typeinfo for MessageDispenseTask
    messagedispensetask.o(.constdata__ZTV19MessageDispenseTask) refers to messagedispensetask.o(i._ZN19MessageDispenseTask3runEv) for MessageDispenseTask::run()
    messagedispensetask.o(i._ZN5EventC1Ev) refers to event.o(.constdata__ZTV5Event) for vtable for Event
    messagedispensetask.o(.ARM.exidx) refers to messagedispensetask.o(i._ZN5EventC1Ev) for i._ZN5EventC1Ev
    messagedispensetask.o(i._ZN8Receiver4recvEP5Eventj) refers to rtx_msgqueue.o(.text.osMessageQueueGet) for osMessageQueueGet
    messagedispensetask.o(.ARM.exidx) refers to messagedispensetask.o(i._ZN8Receiver4recvEP5Eventj) for i._ZN8Receiver4recvEP5Eventj
    messagedispensetask.o(.constdata__ZTI19MessageDispenseTask) refers to lib_rtti_impl.o(.constdata__ZTVN10__cxxabiv120__si_class_type_infoE) for vtable for __cxxabiv1::__si_class_type_info
    messagedispensetask.o(.constdata__ZTI19MessageDispenseTask) refers to messagedispensetask.o(.constdata__ZTS19MessageDispenseTask) for typeinfo name for MessageDispenseTask
    messagedispensetask.o(.constdata__ZTI19MessageDispenseTask) refers to boottask.o(.constdata__ZTI4Task) for typeinfo for Task
    delivertask.o(.constdata__ZTV11DeliverTask) refers to delivertask.o(.constdata__ZTI11DeliverTask) for typeinfo for DeliverTask
    delivertask.o(.constdata__ZTV11DeliverTask) refers to delivertask.o(i._ZN11DeliverTask3runEv) for DeliverTask::run()
    delivertask.o(i._ZN10Compressor9isCheckedEv) refers to cxa_guard_acquire.o(i.__cxa_guard_acquire) for __cxa_guard_acquire
    delivertask.o(i._ZN10Compressor9isCheckedEv) refers to positionswitch.o(i._ZN14PositionSwitchC1Ev) for PositionSwitch::PositionSwitch()
    delivertask.o(i._ZN10Compressor9isCheckedEv) refers to positionswitch.o(i._ZN14PositionSwitch9xGetValueEv) for PositionSwitch::xGetValue()
    delivertask.o(i._ZN10Compressor9isCheckedEv) refers to boottask.o(.data__ZZN14PositionSwitch8instanceEvE8instance) for guard variable for PositionSwitch::instance()::instance
    delivertask.o(i._ZN10Compressor9isCheckedEv) refers to boottask.o(.bss__ZZN14PositionSwitch8instanceEvE8instance) for PositionSwitch::instance()::instance
    delivertask.o(.ARM.exidx) refers to delivertask.o(i._ZN10Compressor9isCheckedEv) for i._ZN10Compressor9isCheckedEv
    delivertask.o(.ARM.exidx) refers to delivertask.o(i._ZNK5Event4arg2Eh) for i._ZNK5Event4arg2Eh
    delivertask.o(i._ZN11FlashMemory4saveEv) refers to flashmemory.o(i._ZN11FlashMemory12vSectorEarseEj) for FlashMemory::vSectorEarse(unsigned)
    delivertask.o(i._ZN11FlashMemory4saveEv) refers to flashmemory.o(i._ZN11FlashMemory10vWriteDataEjPKhj) for FlashMemory::vWriteData(unsigned, const unsigned char*, unsigned)
    delivertask.o(.ARM.exidx) refers to delivertask.o(i._ZN11FlashMemory4saveEv) for i._ZN11FlashMemory4saveEv
    delivertask.o(i._ZN9RobotArm18instanceEv) refers to cxa_guard_acquire.o(i.__cxa_guard_acquire) for __cxa_guard_acquire
    delivertask.o(i._ZN9RobotArm18instanceEv) refers to robotarm1.o(i._ZN9RobotArm1C1Ev) for RobotArm1::RobotArm1()
    delivertask.o(i._ZN9RobotArm18instanceEv) refers to bluetoothevent.o(.data__ZZN9RobotArm18instanceEvE1r) for guard variable for RobotArm1::instance()::r
    delivertask.o(i._ZN9RobotArm18instanceEv) refers to bluetoothevent.o(.bss__ZZN9RobotArm18instanceEvE1r) for RobotArm1::instance()::r
    delivertask.o(.ARM.exidx) refers to delivertask.o(i._ZN9RobotArm18instanceEv) for i._ZN9RobotArm18instanceEv
    delivertask.o(i._ZN9RobotArm28instanceEv) refers to cxa_guard_acquire.o(i.__cxa_guard_acquire) for __cxa_guard_acquire
    delivertask.o(i._ZN9RobotArm28instanceEv) refers to robotarm2.o(i._ZN9RobotArm2C1Ev) for RobotArm2::RobotArm2()
    delivertask.o(i._ZN9RobotArm28instanceEv) refers to bluetoothevent.o(.data__ZZN9RobotArm28instanceEvE8instance) for guard variable for RobotArm2::instance()::instance
    delivertask.o(i._ZN9RobotArm28instanceEv) refers to bluetoothevent.o(.bss__ZZN9RobotArm28instanceEvE8instance) for RobotArm2::instance()::instance
    delivertask.o(.ARM.exidx) refers to delivertask.o(i._ZN9RobotArm28instanceEv) for i._ZN9RobotArm28instanceEv
    delivertask.o(i._ZN6Fridge8instanceEv) refers to cxa_guard_acquire.o(i.__cxa_guard_acquire) for __cxa_guard_acquire
    delivertask.o(i._ZN6Fridge8instanceEv) refers to fridge.o(i._ZN6FridgeC1Ev) for Fridge::Fridge()
    delivertask.o(i._ZN6Fridge8instanceEv) refers to boottask.o(.data__ZZN6Fridge8instanceEvE6fridge) for guard variable for Fridge::instance()::fridge
    delivertask.o(i._ZN6Fridge8instanceEv) refers to boottask.o(.bss__ZZN6Fridge8instanceEvE6fridge) for Fridge::instance()::fridge
    delivertask.o(.ARM.exidx) refers to delivertask.o(i._ZN6Fridge8instanceEv) for i._ZN6Fridge8instanceEv
    delivertask.o(i._ZN10Compressor8instanceEv) refers to cxa_guard_acquire.o(i.__cxa_guard_acquire) for __cxa_guard_acquire
    delivertask.o(i._ZN10Compressor8instanceEv) refers to compressor.o(i._ZN10CompressorC1Ev) for Compressor::Compressor()
    delivertask.o(i._ZN10Compressor8instanceEv) refers to boottask.o(.data__ZZN10Compressor8instanceEvE3com) for guard variable for Compressor::instance()::com
    delivertask.o(.ARM.exidx) refers to delivertask.o(i._ZN10Compressor8instanceEv) for i._ZN10Compressor8instanceEv
    delivertask.o(i._ZN9PickMotor8instanceEv) refers to cxa_guard_acquire.o(i.__cxa_guard_acquire) for __cxa_guard_acquire
    delivertask.o(i._ZN9PickMotor8instanceEv) refers to pickmotor.o(i._ZN9PickMotorC1Ev) for PickMotor::PickMotor()
    delivertask.o(i._ZN9PickMotor8instanceEv) refers to boottask.o(.data__ZZN9PickMotor8instanceEvE9pickMotor) for guard variable for PickMotor::instance()::pickMotor
    delivertask.o(i._ZN9PickMotor8instanceEv) refers to boottask.o(.bss__ZZN9PickMotor8instanceEvE9pickMotor) for PickMotor::instance()::pickMotor
    delivertask.o(.ARM.exidx) refers to delivertask.o(i._ZN9PickMotor8instanceEv) for i._ZN9PickMotor8instanceEv
    delivertask.o(i._ZN11MotorDriver8instanceEv) refers to cxa_guard_acquire.o(i.__cxa_guard_acquire) for __cxa_guard_acquire
    delivertask.o(i._ZN11MotorDriver8instanceEv) refers to motordriver.o(i._ZN11MotorDriverC1Ev) for MotorDriver::MotorDriver()
    delivertask.o(i._ZN11MotorDriver8instanceEv) refers to boottask.o(.data__ZZN11MotorDriver8instanceEvE6driver) for guard variable for MotorDriver::instance()::driver
    delivertask.o(.ARM.exidx) refers to delivertask.o(i._ZN11MotorDriver8instanceEv) for i._ZN11MotorDriver8instanceEv
    delivertask.o(.constdata__ZTI11DeliverTask) refers to lib_rtti_impl.o(.constdata__ZTVN10__cxxabiv121__vmi_class_type_infoE) for vtable for __cxxabiv1::__vmi_class_type_info
    delivertask.o(.constdata__ZTI11DeliverTask) refers to delivertask.o(.constdata__ZTS11DeliverTask) for typeinfo name for DeliverTask
    delivertask.o(.constdata__ZTI11DeliverTask) refers to boottask.o(.constdata__ZTI4Task) for typeinfo for Task
    delivertask.o(.constdata__ZTI11DeliverTask) refers to delivertask.o(.constdata__ZTI8Receiver) for typeinfo for Receiver
    delivertask.o(.constdata__ZTI8Receiver) refers to lib_rtti_impl.o(.constdata__ZTVN10__cxxabiv117__class_type_infoE) for vtable for __cxxabiv1::__class_type_info
    delivertask.o(.constdata__ZTI8Receiver) refers to delivertask.o(.constdata__ZTS8Receiver) for typeinfo name for Receiver
    bluetooth.o(.constdata__ZTV9Bluetooth) refers to bluetooth.o(.constdata__ZTI9Bluetooth) for typeinfo for Bluetooth
    bluetooth.o(.constdata__ZTV9Bluetooth) refers to bluetooth.o(i._ZN9Bluetooth5writeEPKht) for Bluetooth::write(const unsigned char*, unsigned short)
    bluetooth.o(.constdata__ZTI9Bluetooth) refers to lib_rtti_impl.o(.constdata__ZTVN10__cxxabiv121__vmi_class_type_infoE) for vtable for __cxxabiv1::__vmi_class_type_info
    bluetooth.o(.constdata__ZTI9Bluetooth) refers to bluetooth.o(.constdata__ZTS9Bluetooth) for typeinfo name for Bluetooth
    bluetooth.o(.constdata__ZTI9Bluetooth) refers to delivertask.o(.constdata__ZTI8Receiver) for typeinfo for Receiver
    bluetooth.o(.constdata__ZTI9Bluetooth) refers to bluetooth.o(.constdata__ZTI6Sender) for typeinfo for Sender
    bluetooth.o(.constdata__ZTI9Bluetooth) refers to bluetooth.o(.constdata__ZTI10BaseOutput) for typeinfo for BaseOutput
    bluetooth.o(.constdata__ZTI10BaseOutput) refers to lib_rtti_impl.o(.constdata__ZTVN10__cxxabiv117__class_type_infoE) for vtable for __cxxabiv1::__class_type_info
    bluetooth.o(.constdata__ZTI10BaseOutput) refers to bluetooth.o(.constdata__ZTS10BaseOutput) for typeinfo name for BaseOutput
    bluetooth.o(.constdata__ZTI6Sender) refers to lib_rtti_impl.o(.constdata__ZTVN10__cxxabiv117__class_type_infoE) for vtable for __cxxabiv1::__class_type_info
    bluetooth.o(.constdata__ZTI6Sender) refers to bluetooth.o(.constdata__ZTS6Sender) for typeinfo name for Sender
    fridge.o(i._ZN14PositionSwitch8instanceEv) refers to cxa_guard_acquire.o(i.__cxa_guard_acquire) for __cxa_guard_acquire
    fridge.o(i._ZN14PositionSwitch8instanceEv) refers to positionswitch.o(i._ZN14PositionSwitchC1Ev) for PositionSwitch::PositionSwitch()
    fridge.o(i._ZN14PositionSwitch8instanceEv) refers to boottask.o(.data__ZZN14PositionSwitch8instanceEvE8instance) for guard variable for PositionSwitch::instance()::instance
    fridge.o(i._ZN14PositionSwitch8instanceEv) refers to boottask.o(.bss__ZZN14PositionSwitch8instanceEvE8instance) for PositionSwitch::instance()::instance
    fridge.o(.ARM.exidx) refers to fridge.o(i._ZN14PositionSwitch8instanceEv) for i._ZN14PositionSwitch8instanceEv
    fridge.o(i._ZN6Fridge6isOpenEv) refers to fridge.o(i._ZN14PositionSwitch8instanceEv) for PositionSwitch::instance()
    fridge.o(i._ZN6Fridge6isOpenEv) refers to positionswitch.o(i._ZN14PositionSwitch9xGetValueEv) for PositionSwitch::xGetValue()
    fridge.o(.ARM.exidx) refers to fridge.o(i._ZN6Fridge6isOpenEv) for i._ZN6Fridge6isOpenEv
    fridge.o(i._ZN6Fridge7isCloseEv) refers to fridge.o(i._ZN14PositionSwitch8instanceEv) for PositionSwitch::instance()
    fridge.o(i._ZN6Fridge7isCloseEv) refers to positionswitch.o(i._ZN14PositionSwitch9xGetValueEv) for PositionSwitch::xGetValue()
    fridge.o(.ARM.exidx) refers to fridge.o(i._ZN6Fridge7isCloseEv) for i._ZN6Fridge7isCloseEv
    loguart.o(.constdata__ZTV7LogUart) refers to loguart.o(.constdata__ZTI7LogUart) for typeinfo for LogUart
    loguart.o(.constdata__ZTV7LogUart) refers to loguart.o(i._ZN7LogUart5writeEPKht) for LogUart::write(const unsigned char*, unsigned short)
    loguart.o(.constdata__ZTI7LogUart) refers to lib_rtti_impl.o(.constdata__ZTVN10__cxxabiv121__vmi_class_type_infoE) for vtable for __cxxabiv1::__vmi_class_type_info
    loguart.o(.constdata__ZTI7LogUart) refers to loguart.o(.constdata__ZTS7LogUart) for typeinfo name for LogUart
    loguart.o(.constdata__ZTI7LogUart) refers to bluetooth.o(.constdata__ZTI6Sender) for typeinfo for Sender
    loguart.o(.constdata__ZTI7LogUart) refers to delivertask.o(.constdata__ZTI8Receiver) for typeinfo for Receiver
    loguart.o(.constdata__ZTI7LogUart) refers to bluetooth.o(.constdata__ZTI10BaseOutput) for typeinfo for BaseOutput
    mainuart.o(.constdata__ZTV8MainUart) refers to mainuart.o(.constdata__ZTI8MainUart) for typeinfo for MainUart
    mainuart.o(.constdata__ZTV8MainUart) refers to mainuart.o(i._ZN8MainUart5writeEPKht) for MainUart::write(const unsigned char*, unsigned short)
    mainuart.o(.constdata__ZTI8MainUart) refers to lib_rtti_impl.o(.constdata__ZTVN10__cxxabiv121__vmi_class_type_infoE) for vtable for __cxxabiv1::__vmi_class_type_info
    mainuart.o(.constdata__ZTI8MainUart) refers to mainuart.o(.constdata__ZTS8MainUart) for typeinfo name for MainUart
    mainuart.o(.constdata__ZTI8MainUart) refers to bluetooth.o(.constdata__ZTI6Sender) for typeinfo for Sender
    mainuart.o(.constdata__ZTI8MainUart) refers to delivertask.o(.constdata__ZTI8Receiver) for typeinfo for Receiver
    mainuart.o(.constdata__ZTI8MainUart) refers to bluetooth.o(.constdata__ZTI10BaseOutput) for typeinfo for BaseOutput
    pickmotor.o(i._ZN9PickMotor9isCheckedEv) refers to cxa_guard_acquire.o(i.__cxa_guard_acquire) for __cxa_guard_acquire
    pickmotor.o(i._ZN9PickMotor9isCheckedEv) refers to compressor.o(i._ZN10CompressorC1Ev) for Compressor::Compressor()
    pickmotor.o(i._ZN9PickMotor9isCheckedEv) refers to fridge.o(i._ZN14PositionSwitch8instanceEv) for PositionSwitch::instance()
    pickmotor.o(i._ZN9PickMotor9isCheckedEv) refers to positionswitch.o(i._ZN14PositionSwitch9xGetValueEv) for PositionSwitch::xGetValue()
    pickmotor.o(i._ZN9PickMotor9isCheckedEv) refers to boottask.o(.data__ZZN10Compressor8instanceEvE3com) for guard variable for Compressor::instance()::com
    pickmotor.o(.ARM.exidx) refers to pickmotor.o(i._ZN9PickMotor9isCheckedEv) for i._ZN9PickMotor9isCheckedEv
    pickmotor.o(i._ZN9PickMotor5isTopEv) refers to fridge.o(i._ZN14PositionSwitch8instanceEv) for PositionSwitch::instance()
    pickmotor.o(i._ZN9PickMotor5isTopEv) refers to positionswitch.o(i._ZN14PositionSwitch9xGetValueEv) for PositionSwitch::xGetValue()
    pickmotor.o(.ARM.exidx) refers to pickmotor.o(i._ZN9PickMotor5isTopEv) for i._ZN9PickMotor5isTopEv
    lib_rtti_impl.o(.constdata__ZTVN10__cxxabiv123__fundamental_type_infoE) refers to lib_rtti_impl.o(.constdata__ZTIN10__cxxabiv123__fundamental_type_infoE) for typeinfo for __cxxabiv1::__fundamental_type_info
    lib_rtti_impl.o(.constdata__ZTVN10__cxxabiv123__fundamental_type_infoE) refers to lib_rtti_impl.o(i._ZN10__cxxabiv123__fundamental_type_infoD1Ev) for __cxxabiv1::__fundamental_type_info::~__fundamental_type_info()
    lib_rtti_impl.o(.constdata__ZTVN10__cxxabiv123__fundamental_type_infoE) refers to lib_rtti_impl.o(i._ZN10__cxxabiv123__fundamental_type_infoD0Ev) for __cxxabiv1::__fundamental_type_info::~__fundamental_type_info__deallocating()
    lib_rtti_impl.o(.constdata__ZTVN10__cxxabiv117__array_type_infoE) refers to lib_rtti_impl.o(.constdata__ZTIN10__cxxabiv117__array_type_infoE) for typeinfo for __cxxabiv1::__array_type_info
    lib_rtti_impl.o(.constdata__ZTVN10__cxxabiv117__array_type_infoE) refers to lib_rtti_impl.o(i._ZN10__cxxabiv117__array_type_infoD1Ev) for __cxxabiv1::__array_type_info::~__array_type_info()
    lib_rtti_impl.o(.constdata__ZTVN10__cxxabiv117__array_type_infoE) refers to lib_rtti_impl.o(i._ZN10__cxxabiv117__array_type_infoD0Ev) for __cxxabiv1::__array_type_info::~__array_type_info__deallocating()
    lib_rtti_impl.o(.constdata__ZTVN10__cxxabiv120__function_type_infoE) refers to lib_rtti_impl.o(.constdata__ZTIN10__cxxabiv120__function_type_infoE) for typeinfo for __cxxabiv1::__function_type_info
    lib_rtti_impl.o(.constdata__ZTVN10__cxxabiv120__function_type_infoE) refers to lib_rtti_impl.o(i._ZN10__cxxabiv120__function_type_infoD1Ev) for __cxxabiv1::__function_type_info::~__function_type_info()
    lib_rtti_impl.o(.constdata__ZTVN10__cxxabiv120__function_type_infoE) refers to lib_rtti_impl.o(i._ZN10__cxxabiv120__function_type_infoD0Ev) for __cxxabiv1::__function_type_info::~__function_type_info__deallocating()
    lib_rtti_impl.o(.constdata__ZTVN10__cxxabiv116__enum_type_infoE) refers to lib_rtti_impl.o(.constdata__ZTIN10__cxxabiv116__enum_type_infoE) for typeinfo for __cxxabiv1::__enum_type_info
    lib_rtti_impl.o(.constdata__ZTVN10__cxxabiv116__enum_type_infoE) refers to lib_rtti_impl.o(i._ZN10__cxxabiv116__enum_type_infoD1Ev) for __cxxabiv1::__enum_type_info::~__enum_type_info()
    lib_rtti_impl.o(.constdata__ZTVN10__cxxabiv116__enum_type_infoE) refers to lib_rtti_impl.o(i._ZN10__cxxabiv116__enum_type_infoD0Ev) for __cxxabiv1::__enum_type_info::~__enum_type_info__deallocating()
    lib_rtti_impl.o(.constdata__ZTVN10__cxxabiv117__class_type_infoE) refers to lib_rtti_impl.o(.constdata__ZTIN10__cxxabiv117__class_type_infoE) for typeinfo for __cxxabiv1::__class_type_info
    lib_rtti_impl.o(.constdata__ZTVN10__cxxabiv117__class_type_infoE) refers to lib_rtti_impl.o(i._ZN10__cxxabiv117__class_type_infoD1Ev) for __cxxabiv1::__class_type_info::~__class_type_info()
    lib_rtti_impl.o(.constdata__ZTVN10__cxxabiv117__class_type_infoE) refers to lib_rtti_impl.o(i._ZN10__cxxabiv117__class_type_infoD0Ev) for __cxxabiv1::__class_type_info::~__class_type_info__deallocating()
    lib_rtti_impl.o(.constdata__ZTVN10__cxxabiv120__si_class_type_infoE) refers to lib_rtti_impl.o(.constdata__ZTIN10__cxxabiv120__si_class_type_infoE) for typeinfo for __cxxabiv1::__si_class_type_info
    lib_rtti_impl.o(.constdata__ZTVN10__cxxabiv120__si_class_type_infoE) refers to lib_rtti_impl.o(i._ZN10__cxxabiv120__si_class_type_infoD1Ev) for __cxxabiv1::__si_class_type_info::~__si_class_type_info()
    lib_rtti_impl.o(.constdata__ZTVN10__cxxabiv120__si_class_type_infoE) refers to lib_rtti_impl.o(i._ZN10__cxxabiv120__si_class_type_infoD0Ev) for __cxxabiv1::__si_class_type_info::~__si_class_type_info__deallocating()
    lib_rtti_impl.o(.constdata__ZTVN10__cxxabiv121__vmi_class_type_infoE) refers to lib_rtti_impl.o(.constdata__ZTIN10__cxxabiv121__vmi_class_type_infoE) for typeinfo for __cxxabiv1::__vmi_class_type_info
    lib_rtti_impl.o(.constdata__ZTVN10__cxxabiv121__vmi_class_type_infoE) refers to lib_rtti_impl.o(i._ZN10__cxxabiv121__vmi_class_type_infoD1Ev) for __cxxabiv1::__vmi_class_type_info::~__vmi_class_type_info()
    lib_rtti_impl.o(.constdata__ZTVN10__cxxabiv121__vmi_class_type_infoE) refers to lib_rtti_impl.o(i._ZN10__cxxabiv121__vmi_class_type_infoD0Ev) for __cxxabiv1::__vmi_class_type_info::~__vmi_class_type_info__deallocating()
    lib_rtti_impl.o(.constdata__ZTVN10__cxxabiv117__pbase_type_infoE) refers to lib_rtti_impl.o(.constdata__ZTIN10__cxxabiv117__pbase_type_infoE) for typeinfo for __cxxabiv1::__pbase_type_info
    lib_rtti_impl.o(.constdata__ZTVN10__cxxabiv117__pbase_type_infoE) refers to lib_rtti_impl.o(i._ZN10__cxxabiv117__pbase_type_infoD1Ev) for __cxxabiv1::__pbase_type_info::~__pbase_type_info()
    lib_rtti_impl.o(.constdata__ZTVN10__cxxabiv117__pbase_type_infoE) refers to lib_rtti_impl.o(i._ZN10__cxxabiv117__pbase_type_infoD0Ev) for __cxxabiv1::__pbase_type_info::~__pbase_type_info__deallocating()
    lib_rtti_impl.o(.constdata__ZTVN10__cxxabiv119__pointer_type_infoE) refers to lib_rtti_impl.o(.constdata__ZTIN10__cxxabiv119__pointer_type_infoE) for typeinfo for __cxxabiv1::__pointer_type_info
    lib_rtti_impl.o(.constdata__ZTVN10__cxxabiv119__pointer_type_infoE) refers to lib_rtti_impl.o(i._ZN10__cxxabiv119__pointer_type_infoD1Ev) for __cxxabiv1::__pointer_type_info::~__pointer_type_info()
    lib_rtti_impl.o(.constdata__ZTVN10__cxxabiv119__pointer_type_infoE) refers to lib_rtti_impl.o(i._ZN10__cxxabiv119__pointer_type_infoD0Ev) for __cxxabiv1::__pointer_type_info::~__pointer_type_info__deallocating()
    lib_rtti_impl.o(.constdata__ZTVN10__cxxabiv129__pointer_to_member_type_infoE) refers to lib_rtti_impl.o(.constdata__ZTIN10__cxxabiv129__pointer_to_member_type_infoE) for typeinfo for __cxxabiv1::__pointer_to_member_type_info
    lib_rtti_impl.o(.constdata__ZTVN10__cxxabiv129__pointer_to_member_type_infoE) refers to lib_rtti_impl.o(i._ZN10__cxxabiv129__pointer_to_member_type_infoD1Ev) for __cxxabiv1::__pointer_to_member_type_info::~__pointer_to_member_type_info()
    lib_rtti_impl.o(.constdata__ZTVN10__cxxabiv129__pointer_to_member_type_infoE) refers to lib_rtti_impl.o(i._ZN10__cxxabiv129__pointer_to_member_type_infoD0Ev) for __cxxabiv1::__pointer_to_member_type_info::~__pointer_to_member_type_info__deallocating()
    lib_rtti_impl.o(.ARM.exidx) refers to lib_rtti_impl.o(i._ZNSt9type_infodlEPv) for i._ZNSt9type_infodlEPv
    lib_rtti_impl.o(.constdata__ZTIN10__cxxabiv123__fundamental_type_infoE) refers to lib_rtti_impl.o(.constdata__ZTVN10__cxxabiv120__si_class_type_infoE) for vtable for __cxxabiv1::__si_class_type_info
    lib_rtti_impl.o(.constdata__ZTIN10__cxxabiv123__fundamental_type_infoE) refers to lib_rtti_impl.o(.constdata__ZTSN10__cxxabiv123__fundamental_type_infoE) for typeinfo name for __cxxabiv1::__fundamental_type_info
    lib_rtti_impl.o(.constdata__ZTIN10__cxxabiv123__fundamental_type_infoE) refers to type_info_dtor.o(.constdata__ZTISt9type_info) for typeinfo for std::type_info
    lib_rtti_impl.o(.constdata__ZTIN10__cxxabiv117__array_type_infoE) refers to lib_rtti_impl.o(.constdata__ZTVN10__cxxabiv120__si_class_type_infoE) for vtable for __cxxabiv1::__si_class_type_info
    lib_rtti_impl.o(.constdata__ZTIN10__cxxabiv117__array_type_infoE) refers to lib_rtti_impl.o(.constdata__ZTSN10__cxxabiv117__array_type_infoE) for typeinfo name for __cxxabiv1::__array_type_info
    lib_rtti_impl.o(.constdata__ZTIN10__cxxabiv117__array_type_infoE) refers to type_info_dtor.o(.constdata__ZTISt9type_info) for typeinfo for std::type_info
    lib_rtti_impl.o(.constdata__ZTIN10__cxxabiv120__function_type_infoE) refers to lib_rtti_impl.o(.constdata__ZTVN10__cxxabiv120__si_class_type_infoE) for vtable for __cxxabiv1::__si_class_type_info
    lib_rtti_impl.o(.constdata__ZTIN10__cxxabiv120__function_type_infoE) refers to lib_rtti_impl.o(.constdata__ZTSN10__cxxabiv120__function_type_infoE) for typeinfo name for __cxxabiv1::__function_type_info
    lib_rtti_impl.o(.constdata__ZTIN10__cxxabiv120__function_type_infoE) refers to type_info_dtor.o(.constdata__ZTISt9type_info) for typeinfo for std::type_info
    lib_rtti_impl.o(.constdata__ZTIN10__cxxabiv116__enum_type_infoE) refers to lib_rtti_impl.o(.constdata__ZTVN10__cxxabiv120__si_class_type_infoE) for vtable for __cxxabiv1::__si_class_type_info
    lib_rtti_impl.o(.constdata__ZTIN10__cxxabiv116__enum_type_infoE) refers to lib_rtti_impl.o(.constdata__ZTSN10__cxxabiv116__enum_type_infoE) for typeinfo name for __cxxabiv1::__enum_type_info
    lib_rtti_impl.o(.constdata__ZTIN10__cxxabiv116__enum_type_infoE) refers to type_info_dtor.o(.constdata__ZTISt9type_info) for typeinfo for std::type_info
    lib_rtti_impl.o(.constdata__ZTIN10__cxxabiv117__class_type_infoE) refers to lib_rtti_impl.o(.constdata__ZTVN10__cxxabiv120__si_class_type_infoE) for vtable for __cxxabiv1::__si_class_type_info
    lib_rtti_impl.o(.constdata__ZTIN10__cxxabiv117__class_type_infoE) refers to lib_rtti_impl.o(.constdata__ZTSN10__cxxabiv117__class_type_infoE) for typeinfo name for __cxxabiv1::__class_type_info
    lib_rtti_impl.o(.constdata__ZTIN10__cxxabiv117__class_type_infoE) refers to type_info_dtor.o(.constdata__ZTISt9type_info) for typeinfo for std::type_info
    lib_rtti_impl.o(.constdata__ZTIN10__cxxabiv120__si_class_type_infoE) refers to lib_rtti_impl.o(.constdata__ZTVN10__cxxabiv120__si_class_type_infoE) for vtable for __cxxabiv1::__si_class_type_info
    lib_rtti_impl.o(.constdata__ZTIN10__cxxabiv120__si_class_type_infoE) refers to lib_rtti_impl.o(.constdata__ZTSN10__cxxabiv120__si_class_type_infoE) for typeinfo name for __cxxabiv1::__si_class_type_info
    lib_rtti_impl.o(.constdata__ZTIN10__cxxabiv120__si_class_type_infoE) refers to lib_rtti_impl.o(.constdata__ZTIN10__cxxabiv117__class_type_infoE) for typeinfo for __cxxabiv1::__class_type_info
    lib_rtti_impl.o(.constdata__ZTIN10__cxxabiv121__vmi_class_type_infoE) refers to lib_rtti_impl.o(.constdata__ZTVN10__cxxabiv120__si_class_type_infoE) for vtable for __cxxabiv1::__si_class_type_info
    lib_rtti_impl.o(.constdata__ZTIN10__cxxabiv121__vmi_class_type_infoE) refers to lib_rtti_impl.o(.constdata__ZTSN10__cxxabiv121__vmi_class_type_infoE) for typeinfo name for __cxxabiv1::__vmi_class_type_info
    lib_rtti_impl.o(.constdata__ZTIN10__cxxabiv121__vmi_class_type_infoE) refers to lib_rtti_impl.o(.constdata__ZTIN10__cxxabiv117__class_type_infoE) for typeinfo for __cxxabiv1::__class_type_info
    lib_rtti_impl.o(.constdata__ZTIN10__cxxabiv117__pbase_type_infoE) refers to lib_rtti_impl.o(.constdata__ZTVN10__cxxabiv120__si_class_type_infoE) for vtable for __cxxabiv1::__si_class_type_info
    lib_rtti_impl.o(.constdata__ZTIN10__cxxabiv117__pbase_type_infoE) refers to lib_rtti_impl.o(.constdata__ZTSN10__cxxabiv117__pbase_type_infoE) for typeinfo name for __cxxabiv1::__pbase_type_info
    lib_rtti_impl.o(.constdata__ZTIN10__cxxabiv117__pbase_type_infoE) refers to type_info_dtor.o(.constdata__ZTISt9type_info) for typeinfo for std::type_info
    lib_rtti_impl.o(.constdata__ZTIN10__cxxabiv119__pointer_type_infoE) refers to lib_rtti_impl.o(.constdata__ZTVN10__cxxabiv120__si_class_type_infoE) for vtable for __cxxabiv1::__si_class_type_info
    lib_rtti_impl.o(.constdata__ZTIN10__cxxabiv119__pointer_type_infoE) refers to lib_rtti_impl.o(.constdata__ZTSN10__cxxabiv119__pointer_type_infoE) for typeinfo name for __cxxabiv1::__pointer_type_info
    lib_rtti_impl.o(.constdata__ZTIN10__cxxabiv119__pointer_type_infoE) refers to lib_rtti_impl.o(.constdata__ZTIN10__cxxabiv117__pbase_type_infoE) for typeinfo for __cxxabiv1::__pbase_type_info
    lib_rtti_impl.o(.constdata__ZTIN10__cxxabiv129__pointer_to_member_type_infoE) refers to lib_rtti_impl.o(.constdata__ZTVN10__cxxabiv120__si_class_type_infoE) for vtable for __cxxabiv1::__si_class_type_info
    lib_rtti_impl.o(.constdata__ZTIN10__cxxabiv129__pointer_to_member_type_infoE) refers to lib_rtti_impl.o(.constdata__ZTSN10__cxxabiv129__pointer_to_member_type_infoE) for typeinfo name for __cxxabiv1::__pointer_to_member_type_info
    lib_rtti_impl.o(.constdata__ZTIN10__cxxabiv129__pointer_to_member_type_infoE) refers to lib_rtti_impl.o(.constdata__ZTIN10__cxxabiv117__pbase_type_infoE) for typeinfo for __cxxabiv1::__pbase_type_info
    lib_rtti_impl.o(i.__ARM_common_noexcept_landing) refers to arm_exceptions_callterm.o(.text) for __cxa_call_terminate
    lib_rtti_impl.o(.ARM.exidx) refers to lib_rtti_impl.o(i.__ARM_common_noexcept_landing) for i.__ARM_common_noexcept_landing
    type_info_dtor.o(.constdata__ZTVSt9type_info) refers to type_info_dtor.o(.constdata__ZTISt9type_info) for typeinfo for std::type_info
    type_info_dtor.o(.constdata__ZTVSt9type_info) refers to type_info_dtor.o(i._ZNSt9type_infoD1Ev) for std::type_info::~type_info()
    type_info_dtor.o(.constdata__ZTVSt9type_info) refers to type_info_dtor.o(i._ZNSt9type_infoD0Ev) for std::type_info::~type_info__deallocating()
    type_info_dtor.o(.constdata__ZTISt9type_info) refers to lib_rtti_impl.o(.constdata__ZTVN10__cxxabiv117__class_type_infoE) for vtable for __cxxabiv1::__class_type_info
    type_info_dtor.o(.constdata__ZTISt9type_info) refers to type_info_dtor.o(.constdata__ZTSSt9type_info) for typeinfo name for std::type_info


==============================================================================

Removing Unused input sections from the image.

    Removing system_stm32f4xx.o(.rev16_text), (4 bytes).
    Removing system_stm32f4xx.o(.revsh_text), (4 bytes).
    Removing system_stm32f4xx.o(.rrx_text), (6 bytes).
    Removing system_stm32f4xx.o(i.SystemCoreClockUpdate), (120 bytes).
    Removing main.o(.rev16_text), (4 bytes).
    Removing main.o(.revsh_text), (4 bytes).
    Removing main.o(.rrx_text), (6 bytes).
    Removing main.o(.ARM.exidx), (8 bytes).
    Removing bluetoothevent.o(.rev16_text), (4 bytes).
    Removing bluetoothevent.o(.revsh_text), (4 bytes).
    Removing bluetoothevent.o(.rrx_text), (6 bytes).
    Removing bluetoothevent.o(i._ZN14BluetoothEvent15onCheckRobotArmEv), (164 bytes).
    Removing bluetoothevent.o(.ARM.exidx), (8 bytes).
    Removing bluetoothevent.o(.ARM.exidx), (8 bytes).
    Removing bluetoothevent.o(.ARM.exidx), (8 bytes).
    Removing bluetoothevent.o(.ARM.exidx), (8 bytes).
    Removing bluetoothevent.o(.ARM.exidx), (8 bytes).
    Removing event.o(.rev16_text), (4 bytes).
    Removing event.o(.revsh_text), (4 bytes).
    Removing event.o(.rrx_text), (6 bytes).
    Removing event.o(.ARM.exidx), (8 bytes).
    Removing event.o(.ARM.exidx), (8 bytes).
    Removing event.o(.ARM.exidx), (8 bytes).
    Removing event.o(.ARM.exidx), (8 bytes).
    Removing event.o(.ARM.exidx), (8 bytes).
    Removing event.o(.ARM.exidx), (8 bytes).
    Removing mainevent.o(.rev16_text), (4 bytes).
    Removing mainevent.o(.revsh_text), (4 bytes).
    Removing mainevent.o(.rrx_text), (6 bytes).
    Removing mainevent.o(i._ZN9MainEvent22isCorrectNoCheckLengthEv), (52 bytes).
    Removing mainevent.o(i._ZN9MainEvent5writeEhhh), (62 bytes).
    Removing mainevent.o(.ARM.exidx), (8 bytes).
    Removing mainevent.o(.ARM.exidx), (8 bytes).
    Removing mainevent.o(.ARM.exidx), (8 bytes).
    Removing mainevent.o(.ARM.exidx), (8 bytes).
    Removing mainevent.o(.ARM.exidx), (8 bytes).
    Removing mainevent.o(.ARM.exidx), (8 bytes).
    Removing mainevent.o(.ARM.exidx), (8 bytes).
    Removing receiver.o(.ARM.exidx), (8 bytes).
    Removing sender.o(.ARM.exidx), (8 bytes).
    Removing logevent.o(.rev16_text), (4 bytes).
    Removing logevent.o(.revsh_text), (4 bytes).
    Removing logevent.o(.rrx_text), (6 bytes).
    Removing logevent.o(.ARM.exidx), (8 bytes).
    Removing logevent.o(.ARM.exidx), (8 bytes).
    Removing logevent.o(.ARM.exidx), (8 bytes).
    Removing logevent.o(.ARM.exidx), (8 bytes).
    Removing boottask.o(.rev16_text), (4 bytes).
    Removing boottask.o(.revsh_text), (4 bytes).
    Removing boottask.o(.rrx_text), (6 bytes).
    Removing boottask.o(.ARM.exidx), (8 bytes).
    Removing boottask.o(.ARM.exidx), (8 bytes).
    Removing task.o(.ARM.exidx), (8 bytes).
    Removing task.o(.ARM.exidx), (8 bytes).
    Removing task.o(.ARM.exidx), (8 bytes).
    Removing task.o(.ARM.exidx), (8 bytes).
    Removing statusupdatetask.o(.rev16_text), (4 bytes).
    Removing statusupdatetask.o(.revsh_text), (4 bytes).
    Removing statusupdatetask.o(.rrx_text), (6 bytes).
    Removing statusupdatetask.o(.ARM.exidx), (8 bytes).
    Removing statusupdatetask.o(.ARM.exidx), (8 bytes).
    Removing messagedispensetask.o(.rev16_text), (4 bytes).
    Removing messagedispensetask.o(.revsh_text), (4 bytes).
    Removing messagedispensetask.o(.rrx_text), (6 bytes).
    Removing messagedispensetask.o(.ARM.exidx), (8 bytes).
    Removing messagedispensetask.o(.ARM.exidx), (8 bytes).
    Removing delivertask.o(.rev16_text), (4 bytes).
    Removing delivertask.o(.revsh_text), (4 bytes).
    Removing delivertask.o(.rrx_text), (6 bytes).
    Removing delivertask.o(.ARM.exidx), (8 bytes).
    Removing delivertask.o(.ARM.exidx), (8 bytes).
    Removing delivertask.o(.ARM.exidx), (8 bytes).
    Removing delivertask.o(.ARM.exidx), (8 bytes).
    Removing delivertask.o(.ARM.exidx), (8 bytes).
    Removing delivertask.o(.ARM.exidx), (8 bytes).
    Removing delivertask.o(.ARM.exidx), (8 bytes).
    Removing delivertask.o(.ARM.exidx), (8 bytes).
    Removing delivertask.o(.ARM.exidx), (8 bytes).
    Removing delivertask.o(.ARM.exidx), (8 bytes).
    Removing delivertask.o(.ARM.exidx), (8 bytes).
    Removing delivertask.o(.ARM.exidx), (8 bytes).
    Removing delivertask.o(.ARM.exidx), (8 bytes).
    Removing delivertask.o(.ARM.exidx), (8 bytes).
    Removing bluetooth.o(.rev16_text), (4 bytes).
    Removing bluetooth.o(.revsh_text), (4 bytes).
    Removing bluetooth.o(.rrx_text), (6 bytes).
    Removing bluetooth.o(.ARM.exidx), (8 bytes).
    Removing bluetooth.o(.ARM.exidx), (8 bytes).
    Removing bluetooth.o(.ARM.exidx), (8 bytes).
    Removing bluetooth.o(.ARM.exidx), (8 bytes).
    Removing bluetooth.o(.ARM.exidx), (8 bytes).
    Removing bluetooth.o(.ARM.exidx), (8 bytes).
    Removing compressor.o(.rev16_text), (4 bytes).
    Removing compressor.o(.revsh_text), (4 bytes).
    Removing compressor.o(.rrx_text), (6 bytes).
    Removing compressor.o(i._ZN10Compressor12xWaitDropOutEt), (76 bytes).
    Removing compressor.o(.ARM.exidx), (8 bytes).
    Removing compressor.o(.ARM.exidx), (8 bytes).
    Removing ds18b20.o(.rev16_text), (4 bytes).
    Removing ds18b20.o(.revsh_text), (4 bytes).
    Removing ds18b20.o(.rrx_text), (6 bytes).
    Removing ds18b20.o(.ARM.exidx), (8 bytes).
    Removing ds18b20.o(.ARM.exidx), (8 bytes).
    Removing ds18b20.o(.ARM.exidx), (8 bytes).
    Removing ds18b20.o(.ARM.exidx), (8 bytes).
    Removing ds18b20.o(.ARM.exidx), (8 bytes).
    Removing ds18b20.o(.ARM.exidx), (8 bytes).
    Removing ds18b20.o(.ARM.exidx), (8 bytes).
    Removing ds18b20.o(.ARM.exidx), (8 bytes).
    Removing flashmemory.o(.rev16_text), (4 bytes).
    Removing flashmemory.o(.revsh_text), (4 bytes).
    Removing flashmemory.o(.rrx_text), (6 bytes).
    Removing flashmemory.o(i._ZN11FlashMemory6xGetIdEv), (80 bytes).
    Removing flashmemory.o(.ARM.exidx), (8 bytes).
    Removing flashmemory.o(.ARM.exidx), (8 bytes).
    Removing flashmemory.o(.ARM.exidx), (8 bytes).
    Removing flashmemory.o(.ARM.exidx), (8 bytes).
    Removing flashmemory.o(.ARM.exidx), (8 bytes).
    Removing flashmemory.o(.ARM.exidx), (8 bytes).
    Removing flashmemory.o(.ARM.exidx), (8 bytes).
    Removing flashmemory.o(.ARM.exidx), (8 bytes).
    Removing flashmemory.o(.ARM.exidx), (8 bytes).
    Removing flashmemory.o(.ARM.exidx), (8 bytes).
    Removing fridge.o(.rev16_text), (4 bytes).
    Removing fridge.o(.revsh_text), (4 bytes).
    Removing fridge.o(.rrx_text), (6 bytes).
    Removing fridge.o(.ARM.exidx), (8 bytes).
    Removing fridge.o(.ARM.exidx), (8 bytes).
    Removing fridge.o(.ARM.exidx), (8 bytes).
    Removing fridge.o(.ARM.exidx), (8 bytes).
    Removing fridge.o(.ARM.exidx), (8 bytes).
    Removing fridge.o(.ARM.exidx), (8 bytes).
    Removing fridge.o(.ARM.exidx), (8 bytes).
    Removing fridge.o(.ARM.exidx), (8 bytes).
    Removing loguart.o(.rev16_text), (4 bytes).
    Removing loguart.o(.revsh_text), (4 bytes).
    Removing loguart.o(.rrx_text), (6 bytes).
    Removing loguart.o(.ARM.exidx), (8 bytes).
    Removing loguart.o(.ARM.exidx), (8 bytes).
    Removing loguart.o(.ARM.exidx), (8 bytes).
    Removing loguart.o(.ARM.exidx), (8 bytes).
    Removing loguart.o(.ARM.exidx), (8 bytes).
    Removing mainuart.o(.rev16_text), (4 bytes).
    Removing mainuart.o(.revsh_text), (4 bytes).
    Removing mainuart.o(.rrx_text), (6 bytes).
    Removing mainuart.o(.ARM.exidx), (8 bytes).
    Removing mainuart.o(.ARM.exidx), (8 bytes).
    Removing mainuart.o(.ARM.exidx), (8 bytes).
    Removing mainuart.o(.ARM.exidx), (8 bytes).
    Removing mainuart.o(.ARM.exidx), (8 bytes).
    Removing positionswitch.o(.rev16_text), (4 bytes).
    Removing positionswitch.o(.revsh_text), (4 bytes).
    Removing positionswitch.o(.rrx_text), (6 bytes).
    Removing positionswitch.o(.ARM.exidx), (8 bytes).
    Removing positionswitch.o(.ARM.exidx), (8 bytes).
    Removing robotarm1.o(.rev16_text), (4 bytes).
    Removing robotarm1.o(.revsh_text), (4 bytes).
    Removing robotarm1.o(.rrx_text), (6 bytes).
    Removing robotarm1.o(i._ZN9RobotArm114vInversedBrakeEv), (56 bytes).
    Removing robotarm1.o(.ARM.exidx), (8 bytes).
    Removing robotarm1.o(.ARM.exidx), (8 bytes).
    Removing robotarm1.o(.ARM.exidx), (8 bytes).
    Removing robotarm1.o(.ARM.exidx), (8 bytes).
    Removing robotarm1.o(.ARM.exidx), (8 bytes).
    Removing robotarm1.o(.ARM.exidx), (8 bytes).
    Removing robotarm1.o(.ARM.exidx), (8 bytes).
    Removing robotarm1.o(.ARM.exidx), (8 bytes).
    Removing robotarm1.o(.ARM.exidx), (8 bytes).
    Removing robotarm2.o(.rev16_text), (4 bytes).
    Removing robotarm2.o(.revsh_text), (4 bytes).
    Removing robotarm2.o(.rrx_text), (6 bytes).
    Removing robotarm2.o(i._ZN9RobotArm214initMotoDriverEv), (2 bytes).
    Removing robotarm2.o(.ARM.exidx), (8 bytes).
    Removing robotarm2.o(.ARM.exidx), (8 bytes).
    Removing robotarm2.o(.ARM.exidx), (8 bytes).
    Removing robotarm2.o(.ARM.exidx), (8 bytes).
    Removing robotarm2.o(.ARM.exidx), (8 bytes).
    Removing robotarm2.o(.ARM.exidx), (8 bytes).
    Removing robotarm2.o(.ARM.exidx), (8 bytes).
    Removing robotarm2.o(.ARM.exidx), (8 bytes).
    Removing robotarm2.o(.ARM.exidx), (8 bytes).
    Removing systimer.o(.rev16_text), (4 bytes).
    Removing systimer.o(.revsh_text), (4 bytes).
    Removing systimer.o(.rrx_text), (6 bytes).
    Removing systimer.o(.ARM.exidx), (8 bytes).
    Removing systimer.o(.ARM.exidx), (8 bytes).
    Removing pickmotor.o(.rev16_text), (4 bytes).
    Removing pickmotor.o(.revsh_text), (4 bytes).
    Removing pickmotor.o(.rrx_text), (6 bytes).
    Removing pickmotor.o(.ARM.exidx), (8 bytes).
    Removing pickmotor.o(.ARM.exidx), (8 bytes).
    Removing pickmotor.o(.ARM.exidx), (8 bytes).
    Removing pickmotor.o(.ARM.exidx), (8 bytes).
    Removing pickmotor.o(.ARM.exidx), (8 bytes).
    Removing pickmotor.o(.ARM.exidx), (8 bytes).
    Removing pickmotor.o(.ARM.exidx), (8 bytes).
    Removing pickmotor.o(.ARM.exidx), (8 bytes).
    Removing pickmotor.o(.ARM.exidx), (8 bytes).
    Removing pickmotor.o(.ARM.exidx), (8 bytes).
    Removing led.o(.rev16_text), (4 bytes).
    Removing led.o(.revsh_text), (4 bytes).
    Removing led.o(.rrx_text), (6 bytes).
    Removing led.o(.ARM.exidx), (8 bytes).
    Removing led.o(.ARM.exidx), (8 bytes).
    Removing motordriver.o(.rev16_text), (4 bytes).
    Removing motordriver.o(.revsh_text), (4 bytes).
    Removing motordriver.o(.rrx_text), (6 bytes).
    Removing motordriver.o(i._Z13vDrv8704Resetv), (56 bytes).
    Removing motordriver.o(i._ZN11MotorDriver5clearEv), (8 bytes).
    Removing motordriver.o(.ARM.exidx), (8 bytes).
    Removing motordriver.o(.ARM.exidx), (8 bytes).
    Removing motordriver.o(.ARM.exidx), (8 bytes).
    Removing motordriver.o(.ARM.exidx), (8 bytes).
    Removing motordriver.o(.ARM.exidx), (8 bytes).
    Removing motordriver.o(.ARM.exidx), (8 bytes).
    Removing motordriver.o(.ARM.exidx), (8 bytes).
    Removing motordriver.o(.ARM.exidx), (8 bytes).
    Removing elock.o(.rev16_text), (4 bytes).
    Removing elock.o(.revsh_text), (4 bytes).
    Removing elock.o(.rrx_text), (6 bytes).
    Removing elock.o(.ARM.exidx), (8 bytes).
    Removing pidcontrol.o(i._ZN10PIDControl17nextValueOfFridgeEi), (64 bytes).
    Removing pidcontrol.o(.ARM.exidx), (8 bytes).
    Removing pidcontrol.o(.ARM.exidx), (8 bytes).
    Removing pidcontrol.o(.ARM.exidx), (8 bytes).
    Removing baseprotocol.o(.rev16_text), (4 bytes).
    Removing baseprotocol.o(.revsh_text), (4 bytes).
    Removing baseprotocol.o(.rrx_text), (6 bytes).
    Removing baseprotocol.o(i._ZN12BaseProtocolC1EPhhPKht), (68 bytes).
    Removing baseprotocol.o(.ARM.exidx), (8 bytes).
    Removing baseprotocol.o(.ARM.exidx), (8 bytes).
    Removing protocol.o(i._ZN8Protocol5writeER10BaseOutputPh), (84 bytes).
    Removing protocol.o(.ARM.exidx), (8 bytes).
    Removing protocol.o(.ARM.exidx), (8 bytes).
    Removing otamanager.o(.rev16_text), (4 bytes).
    Removing otamanager.o(.revsh_text), (4 bytes).
    Removing otamanager.o(.rrx_text), (6 bytes).
    Removing otamanager.o(.ARM.exidx), (8 bytes).
    Removing otamanager.o(.ARM.exidx), (8 bytes).
    Removing otamanager.o(.ARM.exidx), (8 bytes).
    Removing otamanager.o(.ARM.exidx), (8 bytes).
    Removing baseoutput.o(.ARM.exidx), (8 bytes).
    Removing baseoutput.o(.ARM.exidx), (8 bytes).
    Removing rtx_lib.o(.rev16_text), (4 bytes).
    Removing rtx_lib.o(.revsh_text), (4 bytes).
    Removing rtx_lib.o(.rrx_text), (6 bytes).
    Removing rtx_lib.o(i.__user_perthread_libspace), (76 bytes).
    Removing rtx_lib.o(.bss.os), (496 bytes).
    Removing rtx_lib.o(.data), (4 bytes).
    Removing rtx_config.o(.rev16_text), (4 bytes).
    Removing rtx_config.o(.revsh_text), (4 bytes).
    Removing rtx_config.o(.rrx_text), (6 bytes).
    Removing rtx_kernel.o(.text), (0 bytes).
    Removing rtx_kernel.o(.ARM.exidx.text.svcRtxKernelInitialize), (8 bytes).
    Removing rtx_kernel.o(.text.svcRtxKernelGetInfo), (66 bytes).
    Removing rtx_kernel.o(.ARM.exidx.text.svcRtxKernelGetInfo), (8 bytes).
    Removing rtx_kernel.o(.ARM.exidx.text.svcRtxKernelGetState), (8 bytes).
    Removing rtx_kernel.o(.ARM.exidx.text.svcRtxKernelStart), (8 bytes).
    Removing rtx_kernel.o(.text.svcRtxKernelLock), (36 bytes).
    Removing rtx_kernel.o(.ARM.exidx.text.svcRtxKernelLock), (8 bytes).
    Removing rtx_kernel.o(.text.svcRtxKernelUnlock), (36 bytes).
    Removing rtx_kernel.o(.ARM.exidx.text.svcRtxKernelUnlock), (8 bytes).
    Removing rtx_kernel.o(.text.svcRtxKernelRestoreLock), (46 bytes).
    Removing rtx_kernel.o(.ARM.exidx.text.svcRtxKernelRestoreLock), (8 bytes).
    Removing rtx_kernel.o(.text.svcRtxKernelSuspend), (134 bytes).
    Removing rtx_kernel.o(.ARM.exidx.text.svcRtxKernelSuspend), (8 bytes).
    Removing rtx_kernel.o(.text.svcRtxKernelResume), (226 bytes).
    Removing rtx_kernel.o(.ARM.exidx.text.svcRtxKernelResume), (8 bytes).
    Removing rtx_kernel.o(.text.svcRtxKernelGetTickCount), (14 bytes).
    Removing rtx_kernel.o(.ARM.exidx.text.svcRtxKernelGetTickCount), (8 bytes).
    Removing rtx_kernel.o(.text.svcRtxKernelGetTickFreq), (12 bytes).
    Removing rtx_kernel.o(.ARM.exidx.text.svcRtxKernelGetTickFreq), (8 bytes).
    Removing rtx_kernel.o(.text.svcRtxKernelGetSysTimerCount), (4 bytes).
    Removing rtx_kernel.o(.ARM.exidx.text.svcRtxKernelGetSysTimerCount), (8 bytes).
    Removing rtx_kernel.o(.text.svcRtxKernelGetSysTimerFreq), (4 bytes).
    Removing rtx_kernel.o(.ARM.exidx.text.svcRtxKernelGetSysTimerFreq), (8 bytes).
    Removing rtx_kernel.o(.ARM.exidx.text.osKernelInitialize), (8 bytes).
    Removing rtx_kernel.o(.text.osKernelGetInfo), (112 bytes).
    Removing rtx_kernel.o(.ARM.exidx.text.osKernelGetInfo), (8 bytes).
    Removing rtx_kernel.o(.ARM.exidx.text.osKernelGetState), (8 bytes).
    Removing rtx_kernel.o(.ARM.exidx.text.osKernelStart), (8 bytes).
    Removing rtx_kernel.o(.text.osKernelLock), (36 bytes).
    Removing rtx_kernel.o(.ARM.exidx.text.osKernelLock), (8 bytes).
    Removing rtx_kernel.o(.text.osKernelUnlock), (36 bytes).
    Removing rtx_kernel.o(.ARM.exidx.text.osKernelUnlock), (8 bytes).
    Removing rtx_kernel.o(.text.osKernelRestoreLock), (36 bytes).
    Removing rtx_kernel.o(.ARM.exidx.text.osKernelRestoreLock), (8 bytes).
    Removing rtx_kernel.o(.text.osKernelSuspend), (34 bytes).
    Removing rtx_kernel.o(.ARM.exidx.text.osKernelSuspend), (8 bytes).
    Removing rtx_kernel.o(.text.osKernelResume), (34 bytes).
    Removing rtx_kernel.o(.ARM.exidx.text.osKernelResume), (8 bytes).
    Removing rtx_kernel.o(.text.osKernelGetTickCount), (36 bytes).
    Removing rtx_kernel.o(.ARM.exidx.text.osKernelGetTickCount), (8 bytes).
    Removing rtx_kernel.o(.text.osKernelGetTickFreq), (34 bytes).
    Removing rtx_kernel.o(.ARM.exidx.text.osKernelGetTickFreq), (8 bytes).
    Removing rtx_kernel.o(.text.osKernelGetSysTimerCount), (40 bytes).
    Removing rtx_kernel.o(.ARM.exidx.text.osKernelGetSysTimerCount), (8 bytes).
    Removing rtx_kernel.o(.text.osKernelGetSysTimerFreq), (40 bytes).
    Removing rtx_kernel.o(.ARM.exidx.text.osKernelGetSysTimerFreq), (8 bytes).
    Removing rtx_kernel.o(.data.irqRtxLibRef), (4 bytes).
    Removing rtx_thread.o(.text), (0 bytes).
    Removing rtx_thread.o(.ARM.exidx.text.osRtxThreadListPut), (8 bytes).
    Removing rtx_thread.o(.ARM.exidx.text.osRtxThreadListGet), (8 bytes).
    Removing rtx_thread.o(.text.osRtxThreadListRoot), (26 bytes).
    Removing rtx_thread.o(.ARM.exidx.text.osRtxThreadListRoot), (8 bytes).
    Removing rtx_thread.o(.ARM.exidx.text.osRtxThreadListSort), (8 bytes).
    Removing rtx_thread.o(.ARM.exidx.text.osRtxThreadListRemove), (8 bytes).
    Removing rtx_thread.o(.text.osRtxThreadListUnlink), (26 bytes).
    Removing rtx_thread.o(.ARM.exidx.text.osRtxThreadListUnlink), (8 bytes).
    Removing rtx_thread.o(.ARM.exidx.text.osRtxThreadReadyPut), (8 bytes).
    Removing rtx_thread.o(.text.osRtxThreadDelayInsert), (160 bytes).
    Removing rtx_thread.o(.ARM.exidx.text.osRtxThreadDelayInsert), (8 bytes).
    Removing rtx_thread.o(.text.osRtxThreadDelayRemove), (118 bytes).
    Removing rtx_thread.o(.ARM.exidx.text.osRtxThreadDelayRemove), (8 bytes).
    Removing rtx_thread.o(.ARM.exidx.text.osRtxThreadDelayTick), (8 bytes).
    Removing rtx_thread.o(.ARM.exidx.text.osRtxThreadRegPtr), (8 bytes).
    Removing rtx_thread.o(.text.osRtxThreadBlock), (70 bytes).
    Removing rtx_thread.o(.ARM.exidx.text.osRtxThreadBlock), (8 bytes).
    Removing rtx_thread.o(.ARM.exidx.text.osRtxThreadSwitch), (8 bytes).
    Removing rtx_thread.o(.ARM.exidx.text.osRtxThreadStackCheck), (8 bytes).
    Removing rtx_thread.o(.ARM.exidx.text.osRtxThreadDispatch), (8 bytes).
    Removing rtx_thread.o(.ARM.exidx.text.osRtxThreadWaitExit), (8 bytes).
    Removing rtx_thread.o(.ARM.exidx.text.osRtxThreadWaitEnter), (8 bytes).
    Removing rtx_thread.o(.ARM.exidx.text.osRtxThreadPostProcess), (8 bytes).
    Removing rtx_thread.o(.ARM.exidx.text.svcRtxThreadNew), (8 bytes).
    Removing rtx_thread.o(.ARM.exidx.text.osThreadExit), (8 bytes).
    Removing rtx_thread.o(.text.svcRtxThreadGetName), (22 bytes).
    Removing rtx_thread.o(.ARM.exidx.text.svcRtxThreadGetName), (8 bytes).
    Removing rtx_thread.o(.text.svcRtxThreadGetId), (12 bytes).
    Removing rtx_thread.o(.ARM.exidx.text.svcRtxThreadGetId), (8 bytes).
    Removing rtx_thread.o(.text.svcRtxThreadGetState), (22 bytes).
    Removing rtx_thread.o(.ARM.exidx.text.svcRtxThreadGetState), (8 bytes).
    Removing rtx_thread.o(.text.svcRtxThreadGetStackSize), (22 bytes).
    Removing rtx_thread.o(.ARM.exidx.text.svcRtxThreadGetStackSize), (8 bytes).
    Removing rtx_thread.o(.text.svcRtxThreadGetStackSpace), (74 bytes).
    Removing rtx_thread.o(.ARM.exidx.text.svcRtxThreadGetStackSpace), (8 bytes).
    Removing rtx_thread.o(.text.svcRtxThreadSetPriority), (324 bytes).
    Removing rtx_thread.o(.ARM.exidx.text.svcRtxThreadSetPriority), (8 bytes).
    Removing rtx_thread.o(.text.svcRtxThreadGetPriority), (30 bytes).
    Removing rtx_thread.o(.ARM.exidx.text.svcRtxThreadGetPriority), (8 bytes).
    Removing rtx_thread.o(.text.svcRtxThreadYield), (142 bytes).
    Removing rtx_thread.o(.ARM.exidx.text.svcRtxThreadYield), (8 bytes).
    Removing rtx_thread.o(.text.svcRtxThreadSuspend), (330 bytes).
    Removing rtx_thread.o(.ARM.exidx.text.svcRtxThreadSuspend), (8 bytes).
    Removing rtx_thread.o(.text.svcRtxThreadResume), (170 bytes).
    Removing rtx_thread.o(.ARM.exidx.text.svcRtxThreadResume), (8 bytes).
    Removing rtx_thread.o(.text.svcRtxThreadDetach), (186 bytes).
    Removing rtx_thread.o(.ARM.exidx.text.svcRtxThreadDetach), (8 bytes).
    Removing rtx_thread.o(.text.svcRtxThreadJoin), (336 bytes).
    Removing rtx_thread.o(.ARM.exidx.text.svcRtxThreadJoin), (8 bytes).
    Removing rtx_thread.o(.ARM.exidx.text.svcRtxThreadExit), (8 bytes).
    Removing rtx_thread.o(.ARM.exidx.text.svcRtxThreadTerminate), (8 bytes).
    Removing rtx_thread.o(.text.svcRtxThreadGetCount), (54 bytes).
    Removing rtx_thread.o(.ARM.exidx.text.svcRtxThreadGetCount), (8 bytes).
    Removing rtx_thread.o(.text.svcRtxThreadEnumerate), (112 bytes).
    Removing rtx_thread.o(.ARM.exidx.text.svcRtxThreadEnumerate), (8 bytes).
    Removing rtx_thread.o(.text.svcRtxThreadFlagsSet), (502 bytes).
    Removing rtx_thread.o(.ARM.exidx.text.svcRtxThreadFlagsSet), (8 bytes).
    Removing rtx_thread.o(.text.svcRtxThreadFlagsClear), (82 bytes).
    Removing rtx_thread.o(.ARM.exidx.text.svcRtxThreadFlagsClear), (8 bytes).
    Removing rtx_thread.o(.text.svcRtxThreadFlagsGet), (30 bytes).
    Removing rtx_thread.o(.ARM.exidx.text.svcRtxThreadFlagsGet), (8 bytes).
    Removing rtx_thread.o(.text.svcRtxThreadFlagsWait), (194 bytes).
    Removing rtx_thread.o(.ARM.exidx.text.svcRtxThreadFlagsWait), (8 bytes).
    Removing rtx_thread.o(.ARM.exidx.text.osThreadNew), (8 bytes).
    Removing rtx_thread.o(.text.osThreadGetName), (34 bytes).
    Removing rtx_thread.o(.ARM.exidx.text.osThreadGetName), (8 bytes).
    Removing rtx_thread.o(.text.osThreadGetId), (34 bytes).
    Removing rtx_thread.o(.ARM.exidx.text.osThreadGetId), (8 bytes).
    Removing rtx_thread.o(.text.osThreadGetState), (36 bytes).
    Removing rtx_thread.o(.ARM.exidx.text.osThreadGetState), (8 bytes).
    Removing rtx_thread.o(.text.osThreadGetStackSize), (34 bytes).
    Removing rtx_thread.o(.ARM.exidx.text.osThreadGetStackSize), (8 bytes).
    Removing rtx_thread.o(.text.osThreadGetStackSpace), (34 bytes).
    Removing rtx_thread.o(.ARM.exidx.text.osThreadGetStackSpace), (8 bytes).
    Removing rtx_thread.o(.text.osThreadSetPriority), (36 bytes).
    Removing rtx_thread.o(.ARM.exidx.text.osThreadSetPriority), (8 bytes).
    Removing rtx_thread.o(.text.osThreadGetPriority), (36 bytes).
    Removing rtx_thread.o(.ARM.exidx.text.osThreadGetPriority), (8 bytes).
    Removing rtx_thread.o(.text.osThreadYield), (36 bytes).
    Removing rtx_thread.o(.ARM.exidx.text.osThreadYield), (8 bytes).
    Removing rtx_thread.o(.text.osThreadSuspend), (36 bytes).
    Removing rtx_thread.o(.ARM.exidx.text.osThreadSuspend), (8 bytes).
    Removing rtx_thread.o(.text.osThreadResume), (36 bytes).
    Removing rtx_thread.o(.ARM.exidx.text.osThreadResume), (8 bytes).
    Removing rtx_thread.o(.text.osThreadDetach), (36 bytes).
    Removing rtx_thread.o(.ARM.exidx.text.osThreadDetach), (8 bytes).
    Removing rtx_thread.o(.text.osThreadJoin), (36 bytes).
    Removing rtx_thread.o(.ARM.exidx.text.osThreadJoin), (8 bytes).
    Removing rtx_thread.o(.ARM.exidx.text.osThreadTerminate), (8 bytes).
    Removing rtx_thread.o(.text.osThreadGetCount), (34 bytes).
    Removing rtx_thread.o(.ARM.exidx.text.osThreadGetCount), (8 bytes).
    Removing rtx_thread.o(.text.osThreadEnumerate), (34 bytes).
    Removing rtx_thread.o(.ARM.exidx.text.osThreadEnumerate), (8 bytes).
    Removing rtx_thread.o(.text.osThreadFlagsSet), (94 bytes).
    Removing rtx_thread.o(.ARM.exidx.text.osThreadFlagsSet), (8 bytes).
    Removing rtx_thread.o(.text.osThreadFlagsClear), (36 bytes).
    Removing rtx_thread.o(.ARM.exidx.text.osThreadFlagsClear), (8 bytes).
    Removing rtx_thread.o(.text.osThreadFlagsGet), (34 bytes).
    Removing rtx_thread.o(.ARM.exidx.text.osThreadFlagsGet), (8 bytes).
    Removing rtx_thread.o(.text.osThreadFlagsWait), (36 bytes).
    Removing rtx_thread.o(.ARM.exidx.text.osThreadFlagsWait), (8 bytes).
    Removing rtx_delay.o(.text), (0 bytes).
    Removing rtx_delay.o(.ARM.exidx.text.svcRtxDelay), (8 bytes).
    Removing rtx_delay.o(.text.svcRtxDelayUntil), (58 bytes).
    Removing rtx_delay.o(.ARM.exidx.text.svcRtxDelayUntil), (8 bytes).
    Removing rtx_delay.o(.ARM.exidx.text.osDelay), (8 bytes).
    Removing rtx_delay.o(.text.osDelayUntil), (36 bytes).
    Removing rtx_delay.o(.ARM.exidx.text.osDelayUntil), (8 bytes).
    Removing rtx_mutex.o(.text), (0 bytes).
    Removing rtx_mutex.o(.ARM.exidx.text.osRtxMutexOwnerRelease), (8 bytes).
    Removing rtx_mutex.o(.ARM.exidx.text.svcRtxMutexNew), (8 bytes).
    Removing rtx_mutex.o(.text.svcRtxMutexGetName), (22 bytes).
    Removing rtx_mutex.o(.ARM.exidx.text.svcRtxMutexGetName), (8 bytes).
    Removing rtx_mutex.o(.ARM.exidx.text.svcRtxMutexAcquire), (8 bytes).
    Removing rtx_mutex.o(.ARM.exidx.text.svcRtxMutexRelease), (8 bytes).
    Removing rtx_mutex.o(.text.svcRtxMutexGetOwner), (28 bytes).
    Removing rtx_mutex.o(.ARM.exidx.text.svcRtxMutexGetOwner), (8 bytes).
    Removing rtx_mutex.o(.ARM.exidx.text.svcRtxMutexDelete), (8 bytes).
    Removing rtx_mutex.o(.ARM.exidx.text.osMutexNew), (8 bytes).
    Removing rtx_mutex.o(.text.osMutexGetName), (34 bytes).
    Removing rtx_mutex.o(.ARM.exidx.text.osMutexGetName), (8 bytes).
    Removing rtx_mutex.o(.ARM.exidx.text.osMutexAcquire), (8 bytes).
    Removing rtx_mutex.o(.ARM.exidx.text.osMutexRelease), (8 bytes).
    Removing rtx_mutex.o(.text.osMutexGetOwner), (34 bytes).
    Removing rtx_mutex.o(.ARM.exidx.text.osMutexGetOwner), (8 bytes).
    Removing rtx_mutex.o(.ARM.exidx.text.osMutexDelete), (8 bytes).
    Removing rtx_msgqueue.o(.text), (0 bytes).
    Removing rtx_msgqueue.o(.ARM.exidx.text.osRtxMessageQueuePostProcess), (8 bytes).
    Removing rtx_msgqueue.o(.ARM.exidx.text.svcRtxMessageQueueNew), (8 bytes).
    Removing rtx_msgqueue.o(.text.svcRtxMessageQueueGetName), (22 bytes).
    Removing rtx_msgqueue.o(.ARM.exidx.text.svcRtxMessageQueueGetName), (8 bytes).
    Removing rtx_msgqueue.o(.ARM.exidx.text.svcRtxMessageQueuePut), (8 bytes).
    Removing rtx_msgqueue.o(.ARM.exidx.text.svcRtxMessageQueueGet), (8 bytes).
    Removing rtx_msgqueue.o(.text.svcRtxMessageQueueGetCapacity), (22 bytes).
    Removing rtx_msgqueue.o(.ARM.exidx.text.svcRtxMessageQueueGetCapacity), (8 bytes).
    Removing rtx_msgqueue.o(.text.svcRtxMessageQueueGetMsgSize), (22 bytes).
    Removing rtx_msgqueue.o(.ARM.exidx.text.svcRtxMessageQueueGetMsgSize), (8 bytes).
    Removing rtx_msgqueue.o(.text.svcRtxMessageQueueGetCount), (22 bytes).
    Removing rtx_msgqueue.o(.ARM.exidx.text.svcRtxMessageQueueGetCount), (8 bytes).
    Removing rtx_msgqueue.o(.text.svcRtxMessageQueueGetSpace), (26 bytes).
    Removing rtx_msgqueue.o(.ARM.exidx.text.svcRtxMessageQueueGetSpace), (8 bytes).
    Removing rtx_msgqueue.o(.text.svcRtxMessageQueueReset), (394 bytes).
    Removing rtx_msgqueue.o(.ARM.exidx.text.svcRtxMessageQueueReset), (8 bytes).
    Removing rtx_msgqueue.o(.text.svcRtxMessageQueueDelete), (142 bytes).
    Removing rtx_msgqueue.o(.ARM.exidx.text.svcRtxMessageQueueDelete), (8 bytes).
    Removing rtx_msgqueue.o(.ARM.exidx.text.osMessageQueueNew), (8 bytes).
    Removing rtx_msgqueue.o(.text.osMessageQueueGetName), (34 bytes).
    Removing rtx_msgqueue.o(.ARM.exidx.text.osMessageQueueGetName), (8 bytes).
    Removing rtx_msgqueue.o(.ARM.exidx.text.osMessageQueuePut), (8 bytes).
    Removing rtx_msgqueue.o(.ARM.exidx.text.osMessageQueueGet), (8 bytes).
    Removing rtx_msgqueue.o(.text.osMessageQueueGetCapacity), (52 bytes).
    Removing rtx_msgqueue.o(.ARM.exidx.text.osMessageQueueGetCapacity), (8 bytes).
    Removing rtx_msgqueue.o(.text.osMessageQueueGetMsgSize), (52 bytes).
    Removing rtx_msgqueue.o(.ARM.exidx.text.osMessageQueueGetMsgSize), (8 bytes).
    Removing rtx_msgqueue.o(.text.osMessageQueueGetCount), (52 bytes).
    Removing rtx_msgqueue.o(.ARM.exidx.text.osMessageQueueGetCount), (8 bytes).
    Removing rtx_msgqueue.o(.text.osMessageQueueGetSpace), (56 bytes).
    Removing rtx_msgqueue.o(.ARM.exidx.text.osMessageQueueGetSpace), (8 bytes).
    Removing rtx_msgqueue.o(.text.osMessageQueueReset), (36 bytes).
    Removing rtx_msgqueue.o(.ARM.exidx.text.osMessageQueueReset), (8 bytes).
    Removing rtx_msgqueue.o(.text.osMessageQueueDelete), (36 bytes).
    Removing rtx_msgqueue.o(.ARM.exidx.text.osMessageQueueDelete), (8 bytes).
    Removing irq_cm4f.o(.constdata), (1 bytes).
    Removing rtx_timer.o(.text), (0 bytes).
    Removing rtx_timer.o(.ARM.exidx.text.osRtxTimerTick), (8 bytes).
    Removing rtx_timer.o(.text.osRtxTimerThread), (42 bytes).
    Removing rtx_timer.o(.ARM.exidx.text.osRtxTimerThread), (8 bytes).
    Removing rtx_timer.o(.text.svcRtxTimerNew), (216 bytes).
    Removing rtx_timer.o(.ARM.exidx.text.svcRtxTimerNew), (8 bytes).
    Removing rtx_timer.o(.text.svcRtxTimerGetName), (22 bytes).
    Removing rtx_timer.o(.ARM.exidx.text.svcRtxTimerGetName), (8 bytes).
    Removing rtx_timer.o(.text.svcRtxTimerStart), (184 bytes).
    Removing rtx_timer.o(.ARM.exidx.text.svcRtxTimerStart), (8 bytes).
    Removing rtx_timer.o(.text.svcRtxTimerStop), (82 bytes).
    Removing rtx_timer.o(.ARM.exidx.text.svcRtxTimerStop), (8 bytes).
    Removing rtx_timer.o(.text.svcRtxTimerIsRunning), (24 bytes).
    Removing rtx_timer.o(.ARM.exidx.text.svcRtxTimerIsRunning), (8 bytes).
    Removing rtx_timer.o(.text.svcRtxTimerDelete), (132 bytes).
    Removing rtx_timer.o(.ARM.exidx.text.svcRtxTimerDelete), (8 bytes).
    Removing rtx_timer.o(.text.osTimerNew), (80 bytes).
    Removing rtx_timer.o(.ARM.exidx.text.osTimerNew), (8 bytes).
    Removing rtx_timer.o(.text.osTimerGetName), (34 bytes).
    Removing rtx_timer.o(.ARM.exidx.text.osTimerGetName), (8 bytes).
    Removing rtx_timer.o(.text.osTimerStart), (36 bytes).
    Removing rtx_timer.o(.ARM.exidx.text.osTimerStart), (8 bytes).
    Removing rtx_timer.o(.text.osTimerStop), (36 bytes).
    Removing rtx_timer.o(.ARM.exidx.text.osTimerStop), (8 bytes).
    Removing rtx_timer.o(.text.osTimerIsRunning), (34 bytes).
    Removing rtx_timer.o(.ARM.exidx.text.osTimerIsRunning), (8 bytes).
    Removing rtx_timer.o(.text.osTimerDelete), (36 bytes).
    Removing rtx_timer.o(.ARM.exidx.text.osTimerDelete), (8 bytes).
    Removing rtx_memory.o(.text), (0 bytes).
    Removing rtx_memory.o(.ARM.exidx.text.osRtxMemoryInit), (8 bytes).
    Removing rtx_memory.o(.ARM.exidx.text.osRtxMemoryAlloc), (8 bytes).
    Removing rtx_memory.o(.ARM.exidx.text.osRtxMemoryFree), (8 bytes).
    Removing rtx_mempool.o(.text), (0 bytes).
    Removing rtx_mempool.o(.ARM.exidx.text.osRtxMemoryPoolInit), (8 bytes).
    Removing rtx_mempool.o(.ARM.exidx.text.osRtxMemoryPoolAlloc), (8 bytes).
    Removing rtx_mempool.o(.ARM.exidx.text.osRtxMemoryPoolFree), (8 bytes).
    Removing rtx_mempool.o(.text.osRtxMemoryPoolPostProcess), (98 bytes).
    Removing rtx_mempool.o(.ARM.exidx.text.osRtxMemoryPoolPostProcess), (8 bytes).
    Removing rtx_mempool.o(.text.svcRtxMemoryPoolNew), (508 bytes).
    Removing rtx_mempool.o(.ARM.exidx.text.svcRtxMemoryPoolNew), (8 bytes).
    Removing rtx_mempool.o(.text.svcRtxMemoryPoolGetName), (22 bytes).
    Removing rtx_mempool.o(.ARM.exidx.text.svcRtxMemoryPoolGetName), (8 bytes).
    Removing rtx_mempool.o(.text.svcRtxMemoryPoolAlloc), (122 bytes).
    Removing rtx_mempool.o(.ARM.exidx.text.svcRtxMemoryPoolAlloc), (8 bytes).
    Removing rtx_mempool.o(.text.svcRtxMemoryPoolFree), (204 bytes).
    Removing rtx_mempool.o(.ARM.exidx.text.svcRtxMemoryPoolFree), (8 bytes).
    Removing rtx_mempool.o(.text.svcRtxMemoryPoolGetCapacity), (22 bytes).
    Removing rtx_mempool.o(.ARM.exidx.text.svcRtxMemoryPoolGetCapacity), (8 bytes).
    Removing rtx_mempool.o(.text.svcRtxMemoryPoolGetBlockSize), (22 bytes).
    Removing rtx_mempool.o(.ARM.exidx.text.svcRtxMemoryPoolGetBlockSize), (8 bytes).
    Removing rtx_mempool.o(.text.svcRtxMemoryPoolGetCount), (22 bytes).
    Removing rtx_mempool.o(.ARM.exidx.text.svcRtxMemoryPoolGetCount), (8 bytes).
    Removing rtx_mempool.o(.text.svcRtxMemoryPoolGetSpace), (26 bytes).
    Removing rtx_mempool.o(.ARM.exidx.text.svcRtxMemoryPoolGetSpace), (8 bytes).
    Removing rtx_mempool.o(.text.svcRtxMemoryPoolDelete), (204 bytes).
    Removing rtx_mempool.o(.ARM.exidx.text.svcRtxMemoryPoolDelete), (8 bytes).
    Removing rtx_mempool.o(.text.osMemoryPoolNew), (66 bytes).
    Removing rtx_mempool.o(.ARM.exidx.text.osMemoryPoolNew), (8 bytes).
    Removing rtx_mempool.o(.text.osMemoryPoolGetName), (34 bytes).
    Removing rtx_mempool.o(.ARM.exidx.text.osMemoryPoolGetName), (8 bytes).
    Removing rtx_mempool.o(.text.osMemoryPoolAlloc), (132 bytes).
    Removing rtx_mempool.o(.ARM.exidx.text.osMemoryPoolAlloc), (8 bytes).
    Removing rtx_mempool.o(.text.osMemoryPoolFree), (154 bytes).
    Removing rtx_mempool.o(.ARM.exidx.text.osMemoryPoolFree), (8 bytes).
    Removing rtx_mempool.o(.text.osMemoryPoolGetCapacity), (52 bytes).
    Removing rtx_mempool.o(.ARM.exidx.text.osMemoryPoolGetCapacity), (8 bytes).
    Removing rtx_mempool.o(.text.osMemoryPoolGetBlockSize), (52 bytes).
    Removing rtx_mempool.o(.ARM.exidx.text.osMemoryPoolGetBlockSize), (8 bytes).
    Removing rtx_mempool.o(.text.osMemoryPoolGetCount), (52 bytes).
    Removing rtx_mempool.o(.ARM.exidx.text.osMemoryPoolGetCount), (8 bytes).
    Removing rtx_mempool.o(.text.osMemoryPoolGetSpace), (56 bytes).
    Removing rtx_mempool.o(.ARM.exidx.text.osMemoryPoolGetSpace), (8 bytes).
    Removing rtx_mempool.o(.text.osMemoryPoolDelete), (36 bytes).
    Removing rtx_mempool.o(.ARM.exidx.text.osMemoryPoolDelete), (8 bytes).
    Removing rtx_system.o(.text), (0 bytes).
    Removing rtx_system.o(.ARM.exidx.text.osRtxTick_Handler), (8 bytes).
    Removing rtx_system.o(.ARM.exidx.text.osRtxSysTimerAckIRQ), (8 bytes).
    Removing rtx_system.o(.ARM.exidx.text.osRtxPendSV_Handler), (8 bytes).
    Removing rtx_system.o(.ARM.exidx.text.osRtxPostProcess), (8 bytes).
    Removing rtx_system.o(.ARM.exidx.text.osRtxSysTimerSetup), (8 bytes).
    Removing rtx_system.o(.ARM.exidx.text.osRtxSysTimerEnable), (8 bytes).
    Removing rtx_system.o(.text.osRtxSysTimerDisable), (14 bytes).
    Removing rtx_system.o(.ARM.exidx.text.osRtxSysTimerDisable), (8 bytes).
    Removing rtx_system.o(.text.osRtxSysTimerGetCount), (58 bytes).
    Removing rtx_system.o(.ARM.exidx.text.osRtxSysTimerGetCount), (8 bytes).
    Removing rtx_system.o(.text.osRtxSysTimerGetFreq), (12 bytes).
    Removing rtx_system.o(.ARM.exidx.text.osRtxSysTimerGetFreq), (8 bytes).
    Removing bluetoothevent.o(.ARM.exidx), (8 bytes).
    Removing bluetoothevent.o(.ARM.exidx), (8 bytes).
    Removing bluetoothevent.o(.ARM.exidx), (8 bytes).
    Removing bluetoothevent.o(.constdata__ZTI14BluetoothEvent), (12 bytes).
    Removing bluetoothevent.o(.constdata__ZTS14BluetoothEvent), (17 bytes).
    Removing event.o(.constdata__ZTI5Event), (8 bytes).
    Removing event.o(.constdata__ZTS5Event), (7 bytes).
    Removing mainevent.o(.ARM.exidx), (8 bytes).
    Removing mainevent.o(.ARM.exidx), (8 bytes).
    Removing mainevent.o(.ARM.exidx), (8 bytes).
    Removing mainevent.o(.ARM.exidx), (8 bytes).
    Removing mainevent.o(.ARM.exidx), (8 bytes).
    Removing mainevent.o(.ARM.exidx), (8 bytes).
    Removing mainevent.o(.ARM.exidx), (8 bytes).
    Removing mainevent.o(.constdata__ZTI9MainEvent), (12 bytes).
    Removing mainevent.o(.constdata__ZTS9MainEvent), (11 bytes).
    Removing logevent.o(.ARM.exidx), (8 bytes).
    Removing logevent.o(.ARM.exidx), (8 bytes).
    Removing logevent.o(.constdata__ZTI8LogEvent), (12 bytes).
    Removing logevent.o(.constdata__ZTS8LogEvent), (10 bytes).
    Removing boottask.o(.constdata__ZTI8BootTask), (12 bytes).
    Removing boottask.o(.constdata__ZTI4Task), (8 bytes).
    Removing boottask.o(.constdata__ZTS8BootTask), (10 bytes).
    Removing boottask.o(.constdata__ZTS4Task), (6 bytes).
    Removing statusupdatetask.o(.ARM.exidx), (8 bytes).
    Removing statusupdatetask.o(.ARM.exidx), (8 bytes).
    Removing statusupdatetask.o(.ARM.exidx), (8 bytes).
    Removing statusupdatetask.o(.ARM.exidx), (8 bytes).
    Removing statusupdatetask.o(.constdata__ZTI16StatusUpdateTask), (12 bytes).
    Removing statusupdatetask.o(.constdata__ZTS16StatusUpdateTask), (19 bytes).
    Removing messagedispensetask.o(.ARM.exidx), (8 bytes).
    Removing messagedispensetask.o(.ARM.exidx), (8 bytes).
    Removing messagedispensetask.o(.constdata__ZTI19MessageDispenseTask), (12 bytes).
    Removing messagedispensetask.o(.constdata__ZTS19MessageDispenseTask), (22 bytes).
    Removing delivertask.o(.ARM.exidx), (8 bytes).
    Removing delivertask.o(.ARM.exidx), (8 bytes).
    Removing delivertask.o(.ARM.exidx), (8 bytes).
    Removing delivertask.o(.ARM.exidx), (8 bytes).
    Removing delivertask.o(.ARM.exidx), (8 bytes).
    Removing delivertask.o(.ARM.exidx), (8 bytes).
    Removing delivertask.o(.ARM.exidx), (8 bytes).
    Removing delivertask.o(.ARM.exidx), (8 bytes).
    Removing delivertask.o(.ARM.exidx), (8 bytes).
    Removing delivertask.o(.constdata__ZTI11DeliverTask), (32 bytes).
    Removing delivertask.o(.constdata__ZTI8Receiver), (8 bytes).
    Removing delivertask.o(.constdata__ZTS11DeliverTask), (14 bytes).
    Removing delivertask.o(.constdata__ZTS8Receiver), (10 bytes).
    Removing bluetooth.o(.constdata__ZTI9Bluetooth), (40 bytes).
    Removing bluetooth.o(.constdata__ZTI10BaseOutput), (8 bytes).
    Removing bluetooth.o(.constdata__ZTI6Sender), (8 bytes).
    Removing bluetooth.o(.constdata__ZTS9Bluetooth), (11 bytes).
    Removing bluetooth.o(.constdata__ZTS10BaseOutput), (13 bytes).
    Removing bluetooth.o(.constdata__ZTS6Sender), (8 bytes).
    Removing fridge.o(.ARM.exidx), (8 bytes).
    Removing fridge.o(.ARM.exidx), (8 bytes).
    Removing fridge.o(.ARM.exidx), (8 bytes).
    Removing loguart.o(.constdata__ZTI7LogUart), (40 bytes).
    Removing loguart.o(.constdata__ZTS7LogUart), (9 bytes).
    Removing mainuart.o(.constdata__ZTI8MainUart), (40 bytes).
    Removing mainuart.o(.constdata__ZTS8MainUart), (10 bytes).
    Removing pickmotor.o(.ARM.exidx), (8 bytes).
    Removing pickmotor.o(.ARM.exidx), (8 bytes).

613 unused section(s) (total 14002 bytes) removed from the image.

==============================================================================

Image Symbol Table

    Local Symbols

    Symbol Name                              Value     Ov Type        Size  Object(Section)

    ../../../Source/rtx_delay.c              0x00000000   Number         0  rtx_delay.o ABSOLUTE
    ../../../Source/rtx_kernel.c             0x00000000   Number         0  rtx_kernel.o ABSOLUTE
    ../../../Source/rtx_memory.c             0x00000000   Number         0  rtx_memory.o ABSOLUTE
    ../../../Source/rtx_mempool.c            0x00000000   Number         0  rtx_mempool.o ABSOLUTE
    ../../../Source/rtx_msgqueue.c           0x00000000   Number         0  rtx_msgqueue.o ABSOLUTE
    ../../../Source/rtx_mutex.c              0x00000000   Number         0  rtx_mutex.o ABSOLUTE
    ../../../Source/rtx_system.c             0x00000000   Number         0  rtx_system.o ABSOLUTE
    ../../../Source/rtx_thread.c             0x00000000   Number         0  rtx_thread.o ABSOLUTE
    ../../../Source/rtx_timer.c              0x00000000   Number         0  rtx_timer.o ABSOLUTE
    ../../../edgfe/lib_src/arm_exceptions.c  0x00000000   Number         0  arm_exceptions_mem.o ABSOLUTE
    ../../../edgfe/lib_src/arm_exceptions.c  0x00000000   Number         0  arm_exceptions_support.o ABSOLUTE
    ../../../edgfe/lib_src/arm_exceptions.c  0x00000000   Number         0  arm_exceptions_terminate.o ABSOLUTE
    ../../../edgfe/lib_src/arm_exceptions.c  0x00000000   Number         0  arm_exceptions_globs.o ABSOLUTE
    ../../../edgfe/lib_src/arm_exceptions.c  0x00000000   Number         0  arm_exceptions_callterm.o ABSOLUTE
    ../../../edgfe/lib_src/arm_noexceptions.c 0x00000000   Number         0  arm_begincatch_noexceptions.o ABSOLUTE
    ../../../edgfe/lib_src/guard.c           0x00000000   Number         0  cxa_guard_release.o ABSOLUTE
    ../../../edgfe/lib_src/guard.c           0x00000000   Number         0  cxa_guard_acquire.o ABSOLUTE
    ../../../edgfe/lib_src/pure_virt.c       0x00000000   Number         0  pure_virt.o ABSOLUTE
    ../../../edgfe/lib_src/typeinfo.c        0x00000000   Number         0  lib_rtti_impl.o ABSOLUTE
    ../../../edgfe/lib_src/typeinfo.c        0x00000000   Number         0  type_info_dtor.o ABSOLUTE
    ../clib/angel/boardlib.s                 0x00000000   Number         0  boardinit1.o ABSOLUTE
    ../clib/angel/boardlib.s                 0x00000000   Number         0  boardinit3.o ABSOLUTE
    ../clib/angel/boardlib.s                 0x00000000   Number         0  boardshut.o ABSOLUTE
    ../clib/angel/dczerorl.s                 0x00000000   Number         0  __dczerorl.o ABSOLUTE
    ../clib/angel/handlers.s                 0x00000000   Number         0  __scatter_zi.o ABSOLUTE
    ../clib/angel/kernel.s                   0x00000000   Number         0  __rtentry4.o ABSOLUTE
    ../clib/angel/kernel.s                   0x00000000   Number         0  __rtentry.o ABSOLUTE
    ../clib/angel/kernel.s                   0x00000000   Number         0  rtexit2.o ABSOLUTE
    ../clib/angel/kernel.s                   0x00000000   Number         0  __rtentry2.o ABSOLUTE
    ../clib/angel/kernel.s                   0x00000000   Number         0  rtexit.o ABSOLUTE
    ../clib/angel/rt.s                       0x00000000   Number         0  rt_eh_globals_addr_twolibspace.o ABSOLUTE
    ../clib/angel/rt.s                       0x00000000   Number         0  rt_ctype_table.o ABSOLUTE
    ../clib/angel/rt.s                       0x00000000   Number         0  rt_locale.o ABSOLUTE
    ../clib/angel/rt.s                       0x00000000   Number         0  rt_heap_descriptor_twolibspace.o ABSOLUTE
    ../clib/angel/rt.s                       0x00000000   Number         0  rt_eh_globals_addr.o ABSOLUTE
    ../clib/angel/rt.s                       0x00000000   Number         0  rt_heap_descriptor.o ABSOLUTE
    ../clib/angel/rt.s                       0x00000000   Number         0  rt_raise.o ABSOLUTE
    ../clib/angel/rt.s                       0x00000000   Number         0  rt_locale_intlibspace.o ABSOLUTE
    ../clib/angel/rt.s                       0x00000000   Number         0  rt_locale_twolibspace.o ABSOLUTE
    ../clib/angel/rt.s                       0x00000000   Number         0  rt_eh_globals_addr_intlibspace.o ABSOLUTE
    ../clib/angel/rt.s                       0x00000000   Number         0  rt_heap_descriptor_intlibspace.o ABSOLUTE
    ../clib/angel/scatter.s                  0x00000000   Number         0  __scatter.o ABSOLUTE
    ../clib/angel/startup.s                  0x00000000   Number         0  __main.o ABSOLUTE
    ../clib/angel/sys.s                      0x00000000   Number         0  sys_stackheap_outer.o ABSOLUTE
    ../clib/angel/sys.s                      0x00000000   Number         0  use_no_semi.o ABSOLUTE
    ../clib/angel/sys.s                      0x00000000   Number         0  libspace.o ABSOLUTE
    ../clib/angel/sys.s                      0x00000000   Number         0  indicate_semi.o ABSOLUTE
    ../clib/angel/sysapp.c                   0x00000000   Number         0  sys_exit.o ABSOLUTE
    ../clib/angel/sysapp.c                   0x00000000   Number         0  sys_wrch.o ABSOLUTE
    ../clib/angel/sysapp.c                   0x00000000   Number         0  sys_command.o ABSOLUTE
    ../clib/arm_runtime.c                    0x00000000   Number         0  init_aeabi.o ABSOLUTE
    ../clib/arm_runtime.c                    0x00000000   Number         0  init_aeabi.o ABSOLUTE
    ../clib/armsys.c                         0x00000000   Number         0  argv_veneer.o ABSOLUTE
    ../clib/armsys.c                         0x00000000   Number         0  argv_veneer.o ABSOLUTE
    ../clib/armsys.c                         0x00000000   Number         0  _get_argv_nomalloc.o ABSOLUTE
    ../clib/armsys.c                         0x00000000   Number         0  no_argv.o ABSOLUTE
    ../clib/armsys.c                         0x00000000   Number         0  _get_argv.o ABSOLUTE
    ../clib/bigflt.c                         0x00000000   Number         0  bigflt0.o ABSOLUTE
    ../clib/btod.s                           0x00000000   Number         0  btod.o ABSOLUTE
    ../clib/heap1.c                          0x00000000   Number         0  h1_alloc.o ABSOLUTE
    ../clib/heap1.c                          0x00000000   Number         0  h1_alloc_mt.o ABSOLUTE
    ../clib/heap1.c                          0x00000000   Number         0  h1_final.o ABSOLUTE
    ../clib/heap1.c                          0x00000000   Number         0  h1_final_mt.o ABSOLUTE
    ../clib/heap1.c                          0x00000000   Number         0  h1_extend_mt.o ABSOLUTE
    ../clib/heap1.c                          0x00000000   Number         0  h1_extend.o ABSOLUTE
    ../clib/heap1.c                          0x00000000   Number         0  h1_free_mt.o ABSOLUTE
    ../clib/heap1.c                          0x00000000   Number         0  h1_init_mt.o ABSOLUTE
    ../clib/heap1.c                          0x00000000   Number         0  h1_free.o ABSOLUTE
    ../clib/heap1.c                          0x00000000   Number         0  h1_init.o ABSOLUTE
    ../clib/heap2.c                          0x00000000   Number         0  fdtree.o ABSOLUTE
    ../clib/heap2.c                          0x00000000   Number         0  heap2mt.o ABSOLUTE
    ../clib/heap2.c                          0x00000000   Number         0  heap2.o ABSOLUTE
    ../clib/heapalloc.c                      0x00000000   Number         0  malloc.o ABSOLUTE
    ../clib/heapalloc.c                      0x00000000   Number         0  term_alloc.o ABSOLUTE
    ../clib/heapalloc.c                      0x00000000   Number         0  maybetermalloc1.o ABSOLUTE
    ../clib/heapalloc.c                      0x00000000   Number         0  hguard.o ABSOLUTE
    ../clib/heapalloc.c                      0x00000000   Number         0  heapstubs.o ABSOLUTE
    ../clib/heapalloc.c                      0x00000000   Number         0  maybetermalloc1.o ABSOLUTE
    ../clib/heapalloc.c                      0x00000000   Number         0  free.o ABSOLUTE
    ../clib/heapalloc.c                      0x00000000   Number         0  init_alloc.o ABSOLUTE
    ../clib/heapalloc.c                      0x00000000   Number         0  maybetermalloc2.o ABSOLUTE
    ../clib/heapalloc.c                      0x00000000   Number         0  hrguard.o ABSOLUTE
    ../clib/heapalloc.c                      0x00000000   Number         0  maybetermalloc2.o ABSOLUTE
    ../clib/heapaux.c                        0x00000000   Number         0  heapauxa.o ABSOLUTE
    ../clib/heapaux.c                        0x00000000   Number         0  heapauxi.o ABSOLUTE
    ../clib/libinit.s                        0x00000000   Number         0  libinit2.o ABSOLUTE
    ../clib/libinit.s                        0x00000000   Number         0  libshutdown2.o ABSOLUTE
    ../clib/libinit.s                        0x00000000   Number         0  libshutdown.o ABSOLUTE
    ../clib/libinit.s                        0x00000000   Number         0  libinit.o ABSOLUTE
    ../clib/locale.c                         0x00000000   Number         0  _wcrtomb.o ABSOLUTE
    ../clib/locale.s                         0x00000000   Number         0  lc_numeric_c.o ABSOLUTE
    ../clib/locale.s                         0x00000000   Number         0  lc_ctype_c.o ABSOLUTE
    ../clib/longlong.s                       0x00000000   Number         0  lludiv10.o ABSOLUTE
    ../clib/memcpset.s                       0x00000000   Number         0  aeabi_memset4.o ABSOLUTE
    ../clib/memcpset.s                       0x00000000   Number         0  rt_memcpy_w.o ABSOLUTE
    ../clib/memcpset.s                       0x00000000   Number         0  strcmpv7m.o ABSOLUTE
    ../clib/memcpset.s                       0x00000000   Number         0  rt_memcpy_v6.o ABSOLUTE
    ../clib/memcpset.s                       0x00000000   Number         0  rt_memclr.o ABSOLUTE
    ../clib/memcpset.s                       0x00000000   Number         0  rt_memclr_w.o ABSOLUTE
    ../clib/misc.s                           0x00000000   Number         0  printf_stubs.o ABSOLUTE
    ../clib/printf.c                         0x00000000   Number         0  _printf_fp_dec.o ABSOLUTE
    ../clib/printf.c                         0x00000000   Number         0  _printf_dec.o ABSOLUTE
    ../clib/printf.c                         0x00000000   Number         0  _printf_charcount.o ABSOLUTE
    ../clib/printf.c                         0x00000000   Number         0  _printf_hex_int.o ABSOLUTE
    ../clib/printf.c                         0x00000000   Number         0  _printf_char_common.o ABSOLUTE
    ../clib/printf.c                         0x00000000   Number         0  _sputc.o ABSOLUTE
    ../clib/printf.c                         0x00000000   Number         0  __printf_wp.o ABSOLUTE
    ../clib/printf.c                         0x00000000   Number         0  _printf_fp_infnan.o ABSOLUTE
    ../clib/printf.c                         0x00000000   Number         0  __printf_ss_wp.o ABSOLUTE
    ../clib/printf.c                         0x00000000   Number         0  __printf_flags_ss_wp.o ABSOLUTE
    ../clib/printf.c                         0x00000000   Number         0  __printf_flags_ss.o ABSOLUTE
    ../clib/printf.c                         0x00000000   Number         0  __printf_ss.o ABSOLUTE
    ../clib/printf.c                         0x00000000   Number         0  __printf_flags.o ABSOLUTE
    ../clib/printf.c                         0x00000000   Number         0  _printf_hex_int_ll.o ABSOLUTE
    ../clib/printf.c                         0x00000000   Number         0  _printf_hex_ll_ptr.o ABSOLUTE
    ../clib/printf.c                         0x00000000   Number         0  _printf_hex_ll.o ABSOLUTE
    ../clib/printf.c                         0x00000000   Number         0  _printf_oct_int_ll.o ABSOLUTE
    ../clib/printf.c                         0x00000000   Number         0  __printf_flags_wp.o ABSOLUTE
    ../clib/printf.c                         0x00000000   Number         0  __printf_nopercent.o ABSOLUTE
    ../clib/printf.c                         0x00000000   Number         0  _printf_truncate.o ABSOLUTE
    ../clib/printf.c                         0x00000000   Number         0  _printf_pad.o ABSOLUTE
    ../clib/printf.c                         0x00000000   Number         0  __printf.o ABSOLUTE
    ../clib/printf.c                         0x00000000   Number         0  _printf_char.o ABSOLUTE
    ../clib/printf.c                         0x00000000   Number         0  c89vsprintf.o ABSOLUTE
    ../clib/printf.c                         0x00000000   Number         0  _printf_wchar.o ABSOLUTE
    ../clib/printf.c                         0x00000000   Number         0  _printf_oct_int.o ABSOLUTE
    ../clib/printf.c                         0x00000000   Number         0  _printf_hex_int_ptr.o ABSOLUTE
    ../clib/printf.c                         0x00000000   Number         0  _printf_oct_ll.o ABSOLUTE
    ../clib/printf.c                         0x00000000   Number         0  _printf_hex_int_ll_ptr.o ABSOLUTE
    ../clib/printf.c                         0x00000000   Number         0  _printf_longlong_dec.o ABSOLUTE
    ../clib/printf.c                         0x00000000   Number         0  _printf_wctomb.o ABSOLUTE
    ../clib/printf.c                         0x00000000   Number         0  _printf_intcommon.o ABSOLUTE
    ../clib/printf.c                         0x00000000   Number         0  _printf_str.o ABSOLUTE
    ../clib/printf.c                         0x00000000   Number         0  _printf_hex_ptr.o ABSOLUTE
    ../clib/printf_percent.s                 0x00000000   Number         0  _printf_o.o ABSOLUTE
    ../clib/printf_percent.s                 0x00000000   Number         0  _printf_f.o ABSOLUTE
    ../clib/printf_percent.s                 0x00000000   Number         0  _printf_e.o ABSOLUTE
    ../clib/printf_percent.s                 0x00000000   Number         0  _printf_ll.o ABSOLUTE
    ../clib/printf_percent.s                 0x00000000   Number         0  _printf_g.o ABSOLUTE
    ../clib/printf_percent.s                 0x00000000   Number         0  _printf_llu.o ABSOLUTE
    ../clib/printf_percent.s                 0x00000000   Number         0  _printf_n.o ABSOLUTE
    ../clib/printf_percent.s                 0x00000000   Number         0  _printf_ls.o ABSOLUTE
    ../clib/printf_percent.s                 0x00000000   Number         0  _printf_lc.o ABSOLUTE
    ../clib/printf_percent.s                 0x00000000   Number         0  _printf_a.o ABSOLUTE
    ../clib/printf_percent.s                 0x00000000   Number         0  _printf_s.o ABSOLUTE
    ../clib/printf_percent.s                 0x00000000   Number         0  _printf_c.o ABSOLUTE
    ../clib/printf_percent.s                 0x00000000   Number         0  _printf_llx.o ABSOLUTE
    ../clib/printf_percent.s                 0x00000000   Number         0  _printf_percent.o ABSOLUTE
    ../clib/printf_percent.s                 0x00000000   Number         0  _printf_percent_end.o ABSOLUTE
    ../clib/printf_percent.s                 0x00000000   Number         0  _printf_l.o ABSOLUTE
    ../clib/printf_percent.s                 0x00000000   Number         0  _printf_x.o ABSOLUTE
    ../clib/printf_percent.s                 0x00000000   Number         0  _printf_lld.o ABSOLUTE
    ../clib/printf_percent.s                 0x00000000   Number         0  _printf_i.o ABSOLUTE
    ../clib/printf_percent.s                 0x00000000   Number         0  _printf_lli.o ABSOLUTE
    ../clib/printf_percent.s                 0x00000000   Number         0  _printf_u.o ABSOLUTE
    ../clib/printf_percent.s                 0x00000000   Number         0  _printf_d.o ABSOLUTE
    ../clib/printf_percent.s                 0x00000000   Number         0  _printf_llo.o ABSOLUTE
    ../clib/printf_percent.s                 0x00000000   Number         0  _printf_p.o ABSOLUTE
    ../clib/signal.c                         0x00000000   Number         0  defsig_pvfn_formal.o ABSOLUTE
    ../clib/signal.c                         0x00000000   Number         0  defsig_pvfn_outer.o ABSOLUTE
    ../clib/signal.c                         0x00000000   Number         0  defsig_other.o ABSOLUTE
    ../clib/signal.c                         0x00000000   Number         0  defsig_segv_inner.o ABSOLUTE
    ../clib/signal.c                         0x00000000   Number         0  defsig_cppl_inner.o ABSOLUTE
    ../clib/signal.c                         0x00000000   Number         0  defsig_stak_inner.o ABSOLUTE
    ../clib/signal.c                         0x00000000   Number         0  defsig_rtmem_inner.o ABSOLUTE
    ../clib/signal.c                         0x00000000   Number         0  defsig_rtred_inner.o ABSOLUTE
    ../clib/signal.c                         0x00000000   Number         0  defsig_fpe_inner.o ABSOLUTE
    ../clib/signal.c                         0x00000000   Number         0  defsig_abrt_inner.o ABSOLUTE
    ../clib/signal.c                         0x00000000   Number         0  defsig_rtmem_formal.o ABSOLUTE
    ../clib/signal.c                         0x00000000   Number         0  defsig_abrt_formal.o ABSOLUTE
    ../clib/signal.c                         0x00000000   Number         0  defsig_abrt_outer.o ABSOLUTE
    ../clib/signal.c                         0x00000000   Number         0  defsig_general.o ABSOLUTE
    ../clib/signal.c                         0x00000000   Number         0  __raise.o ABSOLUTE
    ../clib/signal.c                         0x00000000   Number         0  defsig_pvfn_inner.o ABSOLUTE
    ../clib/signal.c                         0x00000000   Number         0  defsig_exit.o ABSOLUTE
    ../clib/signal.c                         0x00000000   Number         0  defsig_rtmem_outer.o ABSOLUTE
    ../clib/signal.s                         0x00000000   Number         0  defsig.o ABSOLUTE
    ../clib/stdlib.c                         0x00000000   Number         0  abort.o ABSOLUTE
    ../clib/stdlib.c                         0x00000000   Number         0  exit.o ABSOLUTE
    ../fplib/fpinit.s                        0x00000000   Number         0  fpinit.o ABSOLUTE
    ../fplib/istatus.s                       0x00000000   Number         0  istatus.o ABSOLUTE
    ../fplib/printf1.s                       0x00000000   Number         0  printf1.o ABSOLUTE
    ../fplib/usenofp.s                       0x00000000   Number         0  usenofp.o ABSOLUTE
    ../mathlib/fpclassify.c                  0x00000000   Number         0  fpclassify.o ABSOLUTE
    ..\..\..\Source\ARM\irq_cm4f.s           0x00000000   Number         0  irq_cm4f.o ABSOLUTE
    ..\CMSIS\startup_stm32f40_41xxx.s        0x00000000   Number         0  startup_stm32f40_41xxx.o ABSOLUTE
    ..\CMSIS\system_stm32f4xx.c              0x00000000   Number         0  system_stm32f4xx.o ABSOLUTE
    ..\User\Custom\BaseOutput.cpp            0x00000000   Number         0  baseoutput.o ABSOLUTE
    ..\User\Custom\BaseProtocol.cpp          0x00000000   Number         0  baseprotocol.o ABSOLUTE
    ..\User\Custom\BaseResult.cpp            0x00000000   Number         0  baseresult.o ABSOLUTE
    ..\User\Custom\OTAManager.cpp            0x00000000   Number         0  otamanager.o ABSOLUTE
    ..\User\Custom\PIDControl.cpp            0x00000000   Number         0  pidcontrol.o ABSOLUTE
    ..\User\Custom\Protocol.cpp              0x00000000   Number         0  protocol.o ABSOLUTE
    ..\User\Driver\Bluetooth.cpp             0x00000000   Number         0  bluetooth.o ABSOLUTE
    ..\User\Driver\Compressor.cpp            0x00000000   Number         0  compressor.o ABSOLUTE
    ..\User\Driver\Ds18b20.cpp               0x00000000   Number         0  ds18b20.o ABSOLUTE
    ..\User\Driver\ELock.cpp                 0x00000000   Number         0  elock.o ABSOLUTE
    ..\User\Driver\FlashMemory.cpp           0x00000000   Number         0  flashmemory.o ABSOLUTE
    ..\User\Driver\Fridge.cpp                0x00000000   Number         0  fridge.o ABSOLUTE
    ..\User\Driver\Led.cpp                   0x00000000   Number         0  led.o ABSOLUTE
    ..\User\Driver\LogUart.cpp               0x00000000   Number         0  loguart.o ABSOLUTE
    ..\User\Driver\MainUart.cpp              0x00000000   Number         0  mainuart.o ABSOLUTE
    ..\User\Driver\MotorDriver.cpp           0x00000000   Number         0  motordriver.o ABSOLUTE
    ..\User\Driver\PickMotor.cpp             0x00000000   Number         0  pickmotor.o ABSOLUTE
    ..\User\Driver\PositionSwitch.cpp        0x00000000   Number         0  positionswitch.o ABSOLUTE
    ..\User\Driver\RobotArm1.cpp             0x00000000   Number         0  robotarm1.o ABSOLUTE
    ..\User\Driver\RobotArm2.cpp             0x00000000   Number         0  robotarm2.o ABSOLUTE
    ..\User\Driver\SysTimer.cpp              0x00000000   Number         0  systimer.o ABSOLUTE
    ..\User\Event\BluetoothEvent.cpp         0x00000000   Number         0  bluetoothevent.o ABSOLUTE
    ..\User\Event\Event.cpp                  0x00000000   Number         0  event.o ABSOLUTE
    ..\User\Event\LogEvent.cpp               0x00000000   Number         0  logevent.o ABSOLUTE
    ..\User\Event\MainEvent.cpp              0x00000000   Number         0  mainevent.o ABSOLUTE
    ..\User\Event\Receiver.cpp               0x00000000   Number         0  receiver.o ABSOLUTE
    ..\User\Event\Sender.cpp                 0x00000000   Number         0  sender.o ABSOLUTE
    ..\User\Main.cpp                         0x00000000   Number         0  main.o ABSOLUTE
    ..\User\Task\BootTask.cpp                0x00000000   Number         0  boottask.o ABSOLUTE
    ..\User\Task\DeliverTask.cpp             0x00000000   Number         0  delivertask.o ABSOLUTE
    ..\User\Task\MessageDispenseTask.cpp     0x00000000   Number         0  messagedispensetask.o ABSOLUTE
    ..\User\Task\StatusUpdateTask.cpp        0x00000000   Number         0  statusupdatetask.o ABSOLUTE
    ..\User\Task\Task.cpp                    0x00000000   Number         0  task.o ABSOLUTE
    ..\\CMSIS\\system_stm32f4xx.c            0x00000000   Number         0  system_stm32f4xx.o ABSOLUTE
    ..\\User\\Custom\\BaseProtocol.cpp       0x00000000   Number         0  baseprotocol.o ABSOLUTE
    ..\\User\\Custom\\OTAManager.cpp         0x00000000   Number         0  otamanager.o ABSOLUTE
    ..\\User\\Driver\\Bluetooth.cpp          0x00000000   Number         0  bluetooth.o ABSOLUTE
    ..\\User\\Driver\\Compressor.cpp         0x00000000   Number         0  compressor.o ABSOLUTE
    ..\\User\\Driver\\Ds18b20.cpp            0x00000000   Number         0  ds18b20.o ABSOLUTE
    ..\\User\\Driver\\ELock.cpp              0x00000000   Number         0  elock.o ABSOLUTE
    ..\\User\\Driver\\FlashMemory.cpp        0x00000000   Number         0  flashmemory.o ABSOLUTE
    ..\\User\\Driver\\Fridge.cpp             0x00000000   Number         0  fridge.o ABSOLUTE
    ..\\User\\Driver\\Led.cpp                0x00000000   Number         0  led.o ABSOLUTE
    ..\\User\\Driver\\LogUart.cpp            0x00000000   Number         0  loguart.o ABSOLUTE
    ..\\User\\Driver\\MainUart.cpp           0x00000000   Number         0  mainuart.o ABSOLUTE
    ..\\User\\Driver\\MotorDriver.cpp        0x00000000   Number         0  motordriver.o ABSOLUTE
    ..\\User\\Driver\\PickMotor.cpp          0x00000000   Number         0  pickmotor.o ABSOLUTE
    ..\\User\\Driver\\PositionSwitch.cpp     0x00000000   Number         0  positionswitch.o ABSOLUTE
    ..\\User\\Driver\\RobotArm1.cpp          0x00000000   Number         0  robotarm1.o ABSOLUTE
    ..\\User\\Driver\\RobotArm2.cpp          0x00000000   Number         0  robotarm2.o ABSOLUTE
    ..\\User\\Driver\\SysTimer.cpp           0x00000000   Number         0  systimer.o ABSOLUTE
    ..\\User\\Event\\BluetoothEvent.cpp      0x00000000   Number         0  bluetoothevent.o ABSOLUTE
    ..\\User\\Event\\Event.cpp               0x00000000   Number         0  event.o ABSOLUTE
    ..\\User\\Event\\LogEvent.cpp            0x00000000   Number         0  logevent.o ABSOLUTE
    ..\\User\\Event\\MainEvent.cpp           0x00000000   Number         0  mainevent.o ABSOLUTE
    ..\\User\\Main.cpp                       0x00000000   Number         0  main.o ABSOLUTE
    ..\\User\\Task\\BootTask.cpp             0x00000000   Number         0  boottask.o ABSOLUTE
    ..\\User\\Task\\DeliverTask.cpp          0x00000000   Number         0  delivertask.o ABSOLUTE
    ..\\User\\Task\\MessageDispenseTask.cpp  0x00000000   Number         0  messagedispensetask.o ABSOLUTE
    ..\\User\\Task\\StatusUpdateTask.cpp     0x00000000   Number         0  statusupdatetask.o ABSOLUTE
    C:\Keil\ARM\PACK\ARM\CMSIS\5.0.1\CMSIS\RTOS2\RTX\Source\rtx_lib.c 0x00000000   Number         0  rtx_lib.o ABSOLUTE
    C:\\Keil\\ARM\\PACK\\ARM\\CMSIS\\5.0.1\\CMSIS\\RTOS2\\RTX\\Source\\rtx_lib.c 0x00000000   Number         0  rtx_lib.o ABSOLUTE
    RTE\CMSIS\RTX_Config.c                   0x00000000   Number         0  rtx_config.o ABSOLUTE
    RTE\\CMSIS\\RTX_Config.c                 0x00000000   Number         0  rtx_config.o ABSOLUTE
    dc.s                                     0x00000000   Number         0  dc.o ABSOLUTE
    RESET                                    0x08004000   Section      392  startup_stm32f40_41xxx.o(RESET)
    !!!main                                  0x08004188   Section        8  __main.o(!!!main)
    !!!scatter                               0x08004190   Section       52  __scatter.o(!!!scatter)
    !!dczerorl                               0x080041c4   Section       58  __dczerorl.o(!!dczerorl)
    !!handler_zi                             0x08004200   Section       28  __scatter_zi.o(!!handler_zi)
    .ARM.Collect$$_printf_percent$$00000000  0x0800421c   Section        0  _printf_percent.o(.ARM.Collect$$_printf_percent$$00000000)
    .ARM.Collect$$_printf_percent$$00000001  0x0800421c   Section        6  _printf_n.o(.ARM.Collect$$_printf_percent$$00000001)
    .ARM.Collect$$_printf_percent$$00000002  0x08004222   Section        6  _printf_p.o(.ARM.Collect$$_printf_percent$$00000002)
    .ARM.Collect$$_printf_percent$$00000003  0x08004228   Section        6  _printf_f.o(.ARM.Collect$$_printf_percent$$00000003)
    .ARM.Collect$$_printf_percent$$00000004  0x0800422e   Section        6  _printf_e.o(.ARM.Collect$$_printf_percent$$00000004)
    .ARM.Collect$$_printf_percent$$00000005  0x08004234   Section        6  _printf_g.o(.ARM.Collect$$_printf_percent$$00000005)
    .ARM.Collect$$_printf_percent$$00000006  0x0800423a   Section        6  _printf_a.o(.ARM.Collect$$_printf_percent$$00000006)
    .ARM.Collect$$_printf_percent$$00000007  0x08004240   Section       10  _printf_ll.o(.ARM.Collect$$_printf_percent$$00000007)
    .ARM.Collect$$_printf_percent$$00000008  0x0800424a   Section        6  _printf_i.o(.ARM.Collect$$_printf_percent$$00000008)
    .ARM.Collect$$_printf_percent$$00000009  0x08004250   Section        6  _printf_d.o(.ARM.Collect$$_printf_percent$$00000009)
    .ARM.Collect$$_printf_percent$$0000000A  0x08004256   Section        6  _printf_u.o(.ARM.Collect$$_printf_percent$$0000000A)
    .ARM.Collect$$_printf_percent$$0000000B  0x0800425c   Section        6  _printf_o.o(.ARM.Collect$$_printf_percent$$0000000B)
    .ARM.Collect$$_printf_percent$$0000000C  0x08004262   Section        6  _printf_x.o(.ARM.Collect$$_printf_percent$$0000000C)
    .ARM.Collect$$_printf_percent$$0000000D  0x08004268   Section        6  _printf_lli.o(.ARM.Collect$$_printf_percent$$0000000D)
    .ARM.Collect$$_printf_percent$$0000000E  0x0800426e   Section        6  _printf_lld.o(.ARM.Collect$$_printf_percent$$0000000E)
    .ARM.Collect$$_printf_percent$$0000000F  0x08004274   Section        6  _printf_llu.o(.ARM.Collect$$_printf_percent$$0000000F)
    .ARM.Collect$$_printf_percent$$00000010  0x0800427a   Section        6  _printf_llo.o(.ARM.Collect$$_printf_percent$$00000010)
    .ARM.Collect$$_printf_percent$$00000011  0x08004280   Section        6  _printf_llx.o(.ARM.Collect$$_printf_percent$$00000011)
    .ARM.Collect$$_printf_percent$$00000012  0x08004286   Section       10  _printf_l.o(.ARM.Collect$$_printf_percent$$00000012)
    .ARM.Collect$$_printf_percent$$00000013  0x08004290   Section        6  _printf_c.o(.ARM.Collect$$_printf_percent$$00000013)
    .ARM.Collect$$_printf_percent$$00000014  0x08004296   Section        6  _printf_s.o(.ARM.Collect$$_printf_percent$$00000014)
    .ARM.Collect$$_printf_percent$$00000015  0x0800429c   Section        6  _printf_lc.o(.ARM.Collect$$_printf_percent$$00000015)
    .ARM.Collect$$_printf_percent$$00000016  0x080042a2   Section        6  _printf_ls.o(.ARM.Collect$$_printf_percent$$00000016)
    .ARM.Collect$$_printf_percent$$00000017  0x080042a8   Section        4  _printf_percent_end.o(.ARM.Collect$$_printf_percent$$00000017)
    .ARM.Collect$$libinit$$00000000          0x080042ac   Section        2  libinit.o(.ARM.Collect$$libinit$$00000000)
    .ARM.Collect$$libinit$$00000001          0x080042ae   Section        4  libinit2.o(.ARM.Collect$$libinit$$00000001)
    .ARM.Collect$$libinit$$00000004          0x080042b2   Section        0  libinit2.o(.ARM.Collect$$libinit$$00000004)
    .ARM.Collect$$libinit$$0000000A          0x080042b2   Section        0  libinit2.o(.ARM.Collect$$libinit$$0000000A)
    .ARM.Collect$$libinit$$0000000C          0x080042b2   Section        0  libinit2.o(.ARM.Collect$$libinit$$0000000C)
    .ARM.Collect$$libinit$$0000000E          0x080042b2   Section        0  libinit2.o(.ARM.Collect$$libinit$$0000000E)
    .ARM.Collect$$libinit$$0000000F          0x080042b2   Section        6  libinit2.o(.ARM.Collect$$libinit$$0000000F)
    .ARM.Collect$$libinit$$00000011          0x080042b8   Section        0  libinit2.o(.ARM.Collect$$libinit$$00000011)
    .ARM.Collect$$libinit$$00000012          0x080042b8   Section       12  libinit2.o(.ARM.Collect$$libinit$$00000012)
    .ARM.Collect$$libinit$$00000013          0x080042c4   Section        0  libinit2.o(.ARM.Collect$$libinit$$00000013)
    .ARM.Collect$$libinit$$00000015          0x080042c4   Section        0  libinit2.o(.ARM.Collect$$libinit$$00000015)
    .ARM.Collect$$libinit$$00000016          0x080042c4   Section       10  libinit2.o(.ARM.Collect$$libinit$$00000016)
    .ARM.Collect$$libinit$$00000017          0x080042ce   Section        0  libinit2.o(.ARM.Collect$$libinit$$00000017)
    .ARM.Collect$$libinit$$00000019          0x080042ce   Section        0  libinit2.o(.ARM.Collect$$libinit$$00000019)
    .ARM.Collect$$libinit$$0000001B          0x080042ce   Section        0  libinit2.o(.ARM.Collect$$libinit$$0000001B)
    .ARM.Collect$$libinit$$0000001D          0x080042ce   Section        0  libinit2.o(.ARM.Collect$$libinit$$0000001D)
    .ARM.Collect$$libinit$$0000001F          0x080042ce   Section        0  libinit2.o(.ARM.Collect$$libinit$$0000001F)
    .ARM.Collect$$libinit$$00000021          0x080042ce   Section        0  libinit2.o(.ARM.Collect$$libinit$$00000021)
    .ARM.Collect$$libinit$$00000023          0x080042ce   Section        0  libinit2.o(.ARM.Collect$$libinit$$00000023)
    .ARM.Collect$$libinit$$00000025          0x080042ce   Section        0  libinit2.o(.ARM.Collect$$libinit$$00000025)
    .ARM.Collect$$libinit$$0000002C          0x080042ce   Section        0  libinit2.o(.ARM.Collect$$libinit$$0000002C)
    .ARM.Collect$$libinit$$0000002E          0x080042ce   Section        0  libinit2.o(.ARM.Collect$$libinit$$0000002E)
    .ARM.Collect$$libinit$$00000030          0x080042ce   Section        0  libinit2.o(.ARM.Collect$$libinit$$00000030)
    .ARM.Collect$$libinit$$00000031          0x080042ce   Section        4  libinit2.o(.ARM.Collect$$libinit$$00000031)
    .ARM.Collect$$libinit$$00000032          0x080042d2   Section        0  libinit2.o(.ARM.Collect$$libinit$$00000032)
    .ARM.Collect$$libinit$$00000033          0x080042d2   Section        2  libinit2.o(.ARM.Collect$$libinit$$00000033)
    .ARM.Collect$$libshutdown$$00000000      0x080042d4   Section        2  libshutdown.o(.ARM.Collect$$libshutdown$$00000000)
    .ARM.Collect$$libshutdown$$00000002      0x080042d6   Section        0  libshutdown2.o(.ARM.Collect$$libshutdown$$00000002)
    .ARM.Collect$$libshutdown$$00000004      0x080042d6   Section        0  libshutdown2.o(.ARM.Collect$$libshutdown$$00000004)
    .ARM.Collect$$libshutdown$$00000007      0x080042d6   Section        0  libshutdown2.o(.ARM.Collect$$libshutdown$$00000007)
    .ARM.Collect$$libshutdown$$0000000A      0x080042d6   Section        0  libshutdown2.o(.ARM.Collect$$libshutdown$$0000000A)
    .ARM.Collect$$libshutdown$$0000000C      0x080042d6   Section        0  libshutdown2.o(.ARM.Collect$$libshutdown$$0000000C)
    .ARM.Collect$$libshutdown$$0000000F      0x080042d6   Section        0  libshutdown2.o(.ARM.Collect$$libshutdown$$0000000F)
    .ARM.Collect$$libshutdown$$00000010      0x080042d6   Section        2  libshutdown2.o(.ARM.Collect$$libshutdown$$00000010)
    .ARM.Collect$$rtentry$$00000000          0x080042d8   Section        0  __rtentry.o(.ARM.Collect$$rtentry$$00000000)
    .ARM.Collect$$rtentry$$00000002          0x080042d8   Section        0  __rtentry2.o(.ARM.Collect$$rtentry$$00000002)
    .ARM.Collect$$rtentry$$00000004          0x080042d8   Section        6  __rtentry4.o(.ARM.Collect$$rtentry$$00000004)
    .ARM.Collect$$rtentry$$00000008          0x080042de   Section        8  __rtentry2.o(.ARM.Collect$$rtentry$$00000008)
    .ARM.Collect$$rtentry$$0000000A          0x080042e6   Section        4  __rtentry2.o(.ARM.Collect$$rtentry$$0000000A)
    .ARM.Collect$$rtentry$$0000000C          0x080042ea   Section        0  __rtentry2.o(.ARM.Collect$$rtentry$$0000000C)
    .ARM.Collect$$rtentry$$0000000D          0x080042ea   Section        8  __rtentry2.o(.ARM.Collect$$rtentry$$0000000D)
    .ARM.Collect$$rtexit$$00000000           0x080042f2   Section        2  rtexit.o(.ARM.Collect$$rtexit$$00000000)
    .ARM.Collect$$rtexit$$00000002           0x080042f4   Section        0  rtexit2.o(.ARM.Collect$$rtexit$$00000002)
    .ARM.Collect$$rtexit$$00000003           0x080042f4   Section        4  rtexit2.o(.ARM.Collect$$rtexit$$00000003)
    .ARM.Collect$$rtexit$$00000004           0x080042f8   Section        6  rtexit2.o(.ARM.Collect$$rtexit$$00000004)
    .text                                    0x08004300   Section       60  startup_stm32f40_41xxx.o(.text)
    $v0                                      0x08004300   Number         0  startup_stm32f40_41xxx.o(.text)
    .text                                    0x0800433c   Section      184  irq_cm4f.o(.text)
    $v0                                      0x0800433c   Number         0  irq_cm4f.o(.text)
    .text                                    0x080043f4   Section        0  c89vsprintf.o(.text)
    .text                                    0x08004418   Section      138  rt_memcpy_v6.o(.text)
    .text                                    0x080044a2   Section       16  aeabi_memset4.o(.text)
    .text                                    0x080044b2   Section       68  rt_memclr.o(.text)
    .text                                    0x080044f6   Section       78  rt_memclr_w.o(.text)
    .text                                    0x08004544   Section        0  heapauxi.o(.text)
    .text                                    0x0800454c   Section        0  init_aeabi.o(.text)
    .text                                    0x08004570   Section        0  _printf_pad.o(.text)
    .text                                    0x080045be   Section        0  _printf_truncate.o(.text)
    .text                                    0x080045e2   Section        0  _printf_str.o(.text)
    .text                                    0x08004634   Section        0  _printf_dec.o(.text)
    .text                                    0x080046ac   Section        0  _printf_charcount.o(.text)
    .text                                    0x080046d4   Section        0  _printf_char_common.o(.text)
    _printf_input_char                       0x080046d5   Thumb Code    10  _printf_char_common.o(.text)
    .text                                    0x08004704   Section        0  _sputc.o(.text)
    .text                                    0x08004710   Section        0  _printf_wctomb.o(.text)
    .text                                    0x080047cc   Section        0  _printf_longlong_dec.o(.text)
    .text                                    0x08004848   Section        0  _printf_oct_int_ll.o(.text)
    _printf_longlong_oct_internal            0x08004849   Thumb Code     0  _printf_oct_int_ll.o(.text)
    .text                                    0x080048b8   Section        0  _printf_hex_int_ll_ptr.o(.text)
    _printf_hex_common                       0x080048b9   Thumb Code     0  _printf_hex_int_ll_ptr.o(.text)
    .text                                    0x0800494c   Section        0  __printf_flags_ss_wp.o(.text)
    .text                                    0x08004ad4   Section        0  defsig_pvfn_outer.o(.text)
    .text                                    0x08004ae2   Section      100  rt_memcpy_w.o(.text)
    .text                                    0x08004b46   Section      138  lludiv10.o(.text)
    .text                                    0x08004bd0   Section        0  _printf_intcommon.o(.text)
    .text                                    0x08004c82   Section        0  _printf_fp_dec.o(.text)
    _fp_digits                               0x08004c85   Thumb Code   428  _printf_fp_dec.o(.text)
    .text                                    0x0800509c   Section        0  _printf_char.o(.text)
    .text                                    0x080050c8   Section        0  _printf_wchar.o(.text)
    .text                                    0x080050f4   Section        0  _wcrtomb.o(.text)
    .text                                    0x08005134   Section        0  defsig_exit.o(.text)
    .text                                    0x08005140   Section        0  defsig_pvfn_inner.o(.text)
    .text                                    0x08005170   Section        0  sys_exit.o(.text)
    .text                                    0x0800517c   Section       74  sys_stackheap_outer.o(.text)
    .text                                    0x080051c8   Section       16  rt_ctype_table.o(.text)
    .text                                    0x080051d8   Section       10  rt_locale_twolibspace.o(.text)
    .text                                    0x080051e4   Section        0  _printf_fp_infnan.o(.text)
    .text                                    0x08005264   Section        0  bigflt0.o(.text)
    .text                                    0x08005340   Section        0  exit.o(.text)
    .text                                    0x08005352   Section        0  defsig_general.o(.text)
    .text                                    0x08005384   Section        0  sys_wrch.o(.text)
    .text                                    0x08005394   Section        8  libspace.o(.text)
    .text                                    0x0800539c   Section        2  use_no_semi.o(.text)
    .text                                    0x0800539e   Section        0  indicate_semi.o(.text)
    .text                                    0x080053a0   Section      128  strcmpv7m.o(.text)
    [Anonymous Symbol]                       0x08005420   Section        0  rtx_delay.o(.text.osDelay)
    [Anonymous Symbol]                       0x08005444   Section        0  rtx_kernel.o(.text.osKernelGetState)
    [Anonymous Symbol]                       0x08005480   Section        0  rtx_kernel.o(.text.osKernelInitialize)
    [Anonymous Symbol]                       0x080054c4   Section        0  rtx_kernel.o(.text.osKernelStart)
    [Anonymous Symbol]                       0x08005508   Section        0  rtx_msgqueue.o(.text.osMessageQueueGet)
    [Anonymous Symbol]                       0x080055bc   Section        0  rtx_msgqueue.o(.text.osMessageQueueNew)
    [Anonymous Symbol]                       0x08005600   Section        0  rtx_msgqueue.o(.text.osMessageQueuePut)
    [Anonymous Symbol]                       0x08005684   Section        0  rtx_mutex.o(.text.osMutexAcquire)
    [Anonymous Symbol]                       0x080056a8   Section        0  rtx_mutex.o(.text.osMutexDelete)
    [Anonymous Symbol]                       0x080056cc   Section        0  rtx_mutex.o(.text.osMutexNew)
    [Anonymous Symbol]                       0x08005710   Section        0  rtx_mutex.o(.text.osMutexRelease)
    [Anonymous Symbol]                       0x08005734   Section        0  rtx_memory.o(.text.osRtxMemoryAlloc)
    [Anonymous Symbol]                       0x080057a4   Section        0  rtx_memory.o(.text.osRtxMemoryFree)
    [Anonymous Symbol]                       0x080057fc   Section        0  rtx_memory.o(.text.osRtxMemoryInit)
    [Anonymous Symbol]                       0x0800582c   Section        0  rtx_mempool.o(.text.osRtxMemoryPoolAlloc)
    [Anonymous Symbol]                       0x08005878   Section        0  rtx_mempool.o(.text.osRtxMemoryPoolFree)
    [Anonymous Symbol]                       0x080058d4   Section        0  rtx_mempool.o(.text.osRtxMemoryPoolInit)
    [Anonymous Symbol]                       0x08005924   Section        0  rtx_msgqueue.o(.text.osRtxMessageQueuePostProcess)
    [Anonymous Symbol]                       0x08005ae4   Section        0  rtx_mutex.o(.text.osRtxMutexOwnerRelease)
    [Anonymous Symbol]                       0x08005b30   Section        0  rtx_system.o(.text.osRtxPendSV_Handler)
    [Anonymous Symbol]                       0x08005bd8   Section        0  rtx_system.o(.text.osRtxPostProcess)
    [Anonymous Symbol]                       0x08005c50   Section        0  rtx_system.o(.text.osRtxSysTimerAckIRQ)
    [Anonymous Symbol]                       0x08005c5c   Section        0  rtx_system.o(.text.osRtxSysTimerEnable)
    [Anonymous Symbol]                       0x08005c6c   Section        0  rtx_system.o(.text.osRtxSysTimerSetup)
    [Anonymous Symbol]                       0x08005ca8   Section        0  rtx_thread.o(.text.osRtxThreadDelayTick)
    [Anonymous Symbol]                       0x08005d30   Section        0  rtx_thread.o(.text.osRtxThreadDispatch)
    [Anonymous Symbol]                       0x08005e88   Section        0  rtx_thread.o(.text.osRtxThreadListGet)
    [Anonymous Symbol]                       0x08005ea4   Section        0  rtx_thread.o(.text.osRtxThreadListPut)
    [Anonymous Symbol]                       0x08005edc   Section        0  rtx_thread.o(.text.osRtxThreadListRemove)
    [Anonymous Symbol]                       0x08005ef8   Section        0  rtx_thread.o(.text.osRtxThreadListSort)
    [Anonymous Symbol]                       0x08005f58   Section        0  rtx_thread.o(.text.osRtxThreadPostProcess)
    [Anonymous Symbol]                       0x08005fe4   Section        0  rtx_thread.o(.text.osRtxThreadReadyPut)
    [Anonymous Symbol]                       0x0800602c   Section        0  rtx_thread.o(.text.osRtxThreadRegPtr)
    [Anonymous Symbol]                       0x08006040   Section        0  rtx_thread.o(.text.osRtxThreadStackCheck)
    [Anonymous Symbol]                       0x08006070   Section        0  rtx_thread.o(.text.osRtxThreadSwitch)
    [Anonymous Symbol]                       0x08006084   Section        0  rtx_thread.o(.text.osRtxThreadWaitEnter)
    [Anonymous Symbol]                       0x08006168   Section        0  rtx_thread.o(.text.osRtxThreadWaitExit)
    [Anonymous Symbol]                       0x08006238   Section        0  rtx_system.o(.text.osRtxTick_Handler)
    [Anonymous Symbol]                       0x080062b0   Section        0  rtx_timer.o(.text.osRtxTimerTick)
    [Anonymous Symbol]                       0x0800635c   Section        0  rtx_thread.o(.text.osThreadExit)
    [Anonymous Symbol]                       0x0800636c   Section        0  rtx_thread.o(.text.osThreadNew)
    [Anonymous Symbol]                       0x080063b0   Section        0  rtx_thread.o(.text.osThreadTerminate)
    [Anonymous Symbol]                       0x080063d4   Section        0  rtx_delay.o(.text.svcRtxDelay)
    [Anonymous Symbol]                       0x080063e8   Section        0  rtx_kernel.o(.text.svcRtxKernelGetState)
    [Anonymous Symbol]                       0x080063f4   Section        0  rtx_kernel.o(.text.svcRtxKernelInitialize)
    [Anonymous Symbol]                       0x080065a0   Section        0  rtx_kernel.o(.text.svcRtxKernelStart)
    [Anonymous Symbol]                       0x08006638   Section        0  rtx_msgqueue.o(.text.svcRtxMessageQueueGet)
    [Anonymous Symbol]                       0x080067d4   Section        0  rtx_msgqueue.o(.text.svcRtxMessageQueueNew)
    [Anonymous Symbol]                       0x08006934   Section        0  rtx_msgqueue.o(.text.svcRtxMessageQueuePut)
    [Anonymous Symbol]                       0x08006a4c   Section        0  rtx_mutex.o(.text.svcRtxMutexAcquire)
    [Anonymous Symbol]                       0x08006aec   Section        0  rtx_mutex.o(.text.svcRtxMutexDelete)
    [Anonymous Symbol]                       0x08006bc4   Section        0  rtx_mutex.o(.text.svcRtxMutexNew)
    [Anonymous Symbol]                       0x08006c38   Section        0  rtx_mutex.o(.text.svcRtxMutexRelease)
    [Anonymous Symbol]                       0x08006d00   Section        0  rtx_thread.o(.text.svcRtxThreadExit)
    [Anonymous Symbol]                       0x08006dbc   Section        0  rtx_thread.o(.text.svcRtxThreadNew)
    [Anonymous Symbol]                       0x08006ffc   Section        0  rtx_thread.o(.text.svcRtxThreadTerminate)
    CL$$btod_d2e                             0x080071f0   Section       62  btod.o(CL$$btod_d2e)
    CL$$btod_d2e_denorm_low                  0x0800722e   Section       70  btod.o(CL$$btod_d2e_denorm_low)
    CL$$btod_d2e_norm_op1                    0x08007274   Section       96  btod.o(CL$$btod_d2e_norm_op1)
    CL$$btod_div_common                      0x080072d4   Section      824  btod.o(CL$$btod_div_common)
    CL$$btod_e2e                             0x0800760c   Section      198  btod.o(CL$$btod_e2e)
    CL$$btod_ediv                            0x080076d2   Section       40  btod.o(CL$$btod_ediv)
    CL$$btod_emul                            0x080076fa   Section       40  btod.o(CL$$btod_emul)
    CL$$btod_mult_common                     0x08007722   Section      580  btod.o(CL$$btod_mult_common)
    i.SetSysClock                            0x08007968   Section        0  system_stm32f4xx.o(i.SetSysClock)
    SetSysClock                              0x08007969   Thumb Code   162  system_stm32f4xx.o(i.SetSysClock)
    i.SystemInit                             0x08007a1c   Section        0  system_stm32f4xx.o(i.SystemInit)
    i.UART5_IRQHandler                       0x08007a78   Section        0  loguart.o(i.UART5_IRQHandler)
    i.USART2_IRQHandler                      0x08007b20   Section        0  bluetooth.o(i.USART2_IRQHandler)
    i.USART3_IRQHandler                      0x08007bc8   Section        0  mainuart.o(i.USART3_IRQHandler)
    i._Z12vDrv8704Initv                      0x08007c70   Section        0  motordriver.o(i._Z12vDrv8704Initv)
    i._Z4copyPvPKvj                          0x08007cc4   Section        0  otamanager.o(i._Z4copyPvPKvj)
    i._Z8vSpiInitv                           0x08007cd8   Section        0  motordriver.o(i._Z8vSpiInitv)
    vSpiInit()                               0x08007cd9   Thumb Code   218  motordriver.o(i._Z8vSpiInitv)
    i._Z9vSpiWriteht                         0x08007dc4   Section        0  motordriver.o(i._Z9vSpiWriteht)
    vSpiWrite(unsigned char, unsigned short) 0x08007dc5   Thumb Code    78  motordriver.o(i._Z9vSpiWriteht)
    i._ZN10BaseOutput13buildAndWriteEv       0x08007e20   Section        0  statusupdatetask.o(i._ZN10BaseOutput13buildAndWriteEv)
    i._ZN10BaseOutput5buildEPh               0x08007e44   Section        0  baseoutput.o(i._ZN10BaseOutput5buildEPh)
    i._ZN10BaseOutput6formatEPKcz            0x08007e86   Section        0  baseoutput.o(i._ZN10BaseOutput6formatEPKcz)
    i._ZN10BaseOutput7append1Eh              0x08007ea8   Section        0  statusupdatetask.o(i._ZN10BaseOutput7append1Eh)
    i._ZN10BaseOutput7append2Et              0x08007eb6   Section        0  statusupdatetask.o(i._ZN10BaseOutput7append2Et)
    i._ZN10BaseOutput9setActionEh            0x08007eda   Section        0  statusupdatetask.o(i._ZN10BaseOutput9setActionEh)
    i._ZN10Compressor8instanceEv             0x08007ee4   Section        0  delivertask.o(i._ZN10Compressor8instanceEv)
    i._ZN10Compressor9isCheckedEv            0x08007f10   Section        0  delivertask.o(i._ZN10Compressor9isCheckedEv)
    i._ZN10CompressorC1Ev                    0x08007f44   Section        0  compressor.o(i._ZN10CompressorC1Ev)
    i._ZN10OTAManager13setOTAMessageEj       0x08007f94   Section        0  otamanager.o(i._ZN10OTAManager13setOTAMessageEj)
    i._ZN10OTAManager4initEj                 0x08008070   Section        0  mainevent.o(i._ZN10OTAManager4initEj)
    i._ZN10OTAManager6xWriteEtPKhj           0x080080fc   Section        0  otamanager.o(i._ZN10OTAManager6xWriteEtPKhj)
    i._ZN10OTAManager8instanceEv             0x080081fc   Section        0  mainevent.o(i._ZN10OTAManager8instanceEv)
    i._ZN10OTAManagerC1Ev                    0x08008228   Section        0  otamanager.o(i._ZN10OTAManagerC1Ev)
    i._ZN10PIDControl4initEifff              0x0800822a   Section        0  pidcontrol.o(i._ZN10PIDControl4initEifff)
    i._ZN10PIDControl9nextValueEi            0x0800823e   Section        0  pidcontrol.o(i._ZN10PIDControl9nextValueEi)
    i._ZN11DeliverTask10testFridgeER5Event   0x08008290   Section        0  delivertask.o(i._ZN11DeliverTask10testFridgeER5Event)
    i._ZN11DeliverTask12robotArmTestER5Event 0x080082d6   Section        0  delivertask.o(i._ZN11DeliverTask12robotArmTestER5Event)
    i._ZN11DeliverTask12setGoodsTypeER5Event 0x08008360   Section        0  delivertask.o(i._ZN11DeliverTask12setGoodsTypeER5Event)
    i._ZN11DeliverTask12testRobotArmER5Event 0x080083e2   Section        0  delivertask.o(i._ZN11DeliverTask12testRobotArmER5Event)
    i._ZN11DeliverTask13readGoodsTypeER5Event 0x08008430   Section        0  delivertask.o(i._ZN11DeliverTask13readGoodsTypeER5Event)
    i._ZN11DeliverTask13robotArmCheckER5Event 0x08008498   Section        0  delivertask.o(i._ZN11DeliverTask13robotArmCheckER5Event)
    i._ZN11DeliverTask13testPickMotorER5Event 0x08008520   Section        0  delivertask.o(i._ZN11DeliverTask13testPickMotorER5Event)
    i._ZN11DeliverTask14testCompressorER5Event 0x08008574   Section        0  delivertask.o(i._ZN11DeliverTask14testCompressorER5Event)
    i._ZN11DeliverTask16settingGoodsTypeER5Event 0x080085ac   Section        0  delivertask.o(i._ZN11DeliverTask16settingGoodsTypeER5Event)
    i._ZN11DeliverTask3runEv                 0x08008620   Section        0  delivertask.o(i._ZN11DeliverTask3runEv)
    i._ZN11DeliverTask4initER5Event          0x080086f0   Section        0  delivertask.o(i._ZN11DeliverTask4initER5Event)
    i._ZN11DeliverTask7deliverER5Event       0x0800873a   Section        0  delivertask.o(i._ZN11DeliverTask7deliverER5Event)
    i._ZN11DeliverTask7deliverEhhtR5Event    0x08008868   Section        0  delivertask.o(i._ZN11DeliverTask7deliverEhhtR5Event)
    i._ZN11DeliverTask8instanceEv            0x08008a8c   Section        0  mainevent.o(i._ZN11DeliverTask8instanceEv)
    i._ZN11DeliverTaskC1Ev                   0x08008ab8   Section        0  delivertask.o(i._ZN11DeliverTaskC1Ev)
    i._ZN11FlashMemory10vWriteDataEjPKhj     0x08008af4   Section        0  flashmemory.o(i._ZN11FlashMemory10vWriteDataEjPKhj)
    i._ZN11FlashMemory12vPageProgramEjPKhj   0x08008b64   Section        0  flashmemory.o(i._ZN11FlashMemory12vPageProgramEjPKhj)
    i._ZN11FlashMemory12vSectorEarseEj       0x08008bc8   Section        0  flashmemory.o(i._ZN11FlashMemory12vSectorEarseEj)
    i._ZN11FlashMemory12vWriteEnableEv       0x08008c1c   Section        0  flashmemory.o(i._ZN11FlashMemory12vWriteEnableEv)
    i._ZN11FlashMemory12xQueryStatusEv       0x08008c38   Section        0  flashmemory.o(i._ZN11FlashMemory12xQueryStatusEv)
    i._ZN11FlashMemory14xTranslateByteEh     0x08008c5c   Section        0  flashmemory.o(i._ZN11FlashMemory14xTranslateByteEh)
    i._ZN11FlashMemory16initSpiInterfaceEv   0x08008c7c   Section        0  flashmemory.o(i._ZN11FlashMemory16initSpiInterfaceEv)
    i._ZN11FlashMemory4saveEv                0x08008d14   Section        0  delivertask.o(i._ZN11FlashMemory4saveEv)
    i._ZN11FlashMemory8instanceEv            0x08008d30   Section        0  bluetoothevent.o(i._ZN11FlashMemory8instanceEv)
    i._ZN11FlashMemory9vReadDataEjPhj        0x08008d5c   Section        0  flashmemory.o(i._ZN11FlashMemory9vReadDataEjPhj)
    i._ZN11FlashMemoryC1Ev                   0x08008dac   Section        0  flashmemory.o(i._ZN11FlashMemoryC1Ev)
    i._ZN11MotorDriver6enableEv              0x08008dc8   Section        0  motordriver.o(i._ZN11MotorDriver6enableEv)
    i._ZN11MotorDriver7disableEv             0x08008e00   Section        0  motordriver.o(i._ZN11MotorDriver7disableEv)
    i._ZN11MotorDriver8instanceEv            0x08008e0c   Section        0  delivertask.o(i._ZN11MotorDriver8instanceEv)
    i._ZN11MotorDriverC1Ev                   0x08008e38   Section        0  motordriver.o(i._ZN11MotorDriverC1Ev)
    i._ZN12BaseProtocol5writeEv              0x08008e50   Section        0  logevent.o(i._ZN12BaseProtocol5writeEv)
    i._ZN12BaseProtocolC1EPhRK5Eventh        0x08008e66   Section        0  baseprotocol.o(i._ZN12BaseProtocolC1EPhRK5Eventh)
    i._ZN14BluetoothEvent14onStatusChangeEhhh 0x08008edc   Section        0  bluetoothevent.o(i._ZN14BluetoothEvent14onStatusChangeEhhh)
    i._ZN14BluetoothEvent7disposeEv          0x08008f28   Section        0  bluetoothevent.o(i._ZN14BluetoothEvent7disposeEv)
    i._ZN14BluetoothEvent8onResultEPKht      0x08008f8c   Section        0  bluetoothevent.o(i._ZN14BluetoothEvent8onResultEPKht)
    i._ZN14BluetoothEvent8onReturnEh         0x08008fa4   Section        0  bluetoothevent.o(i._ZN14BluetoothEvent8onReturnEh)
    i._ZN14PositionSwitch8instanceEv         0x08008fa8   Section        0  fridge.o(i._ZN14PositionSwitch8instanceEv)
    i._ZN14PositionSwitch9xGetValueEv        0x08008fd4   Section        0  positionswitch.o(i._ZN14PositionSwitch9xGetValueEv)
    i._ZN14PositionSwitchC1Ev                0x08009024   Section        0  positionswitch.o(i._ZN14PositionSwitchC1Ev)
    i._ZN16StatusUpdateTask3runEv            0x0800908c   Section        0  statusupdatetask.o(i._ZN16StatusUpdateTask3runEv)
    i._ZN16StatusUpdateTaskC1Ev              0x0800927c   Section        0  statusupdatetask.o(i._ZN16StatusUpdateTaskC1Ev)
    i._ZN19MessageDispenseTask3runEv         0x080092a4   Section        0  messagedispensetask.o(i._ZN19MessageDispenseTask3runEv)
    i._ZN19MessageDispenseTaskC1Ev           0x08009384   Section        0  messagedispensetask.o(i._ZN19MessageDispenseTaskC1Ev)
    i._ZN3Led5blinkEv                        0x080093ac   Section        0  led.o(i._ZN3Led5blinkEv)
    i._ZN3LedC1Ev                            0x080093f0   Section        0  led.o(i._ZN3LedC1Ev)
    i._ZN4Task14startThreadFunEPv            0x08009434   Section        0  task.o(i._ZN4Task14startThreadFunEPv)
    i._ZN4Task4stopEv                        0x08009446   Section        0  task.o(i._ZN4Task4stopEv)
    i._ZN4Task5startEv                       0x08009458   Section        0  task.o(i._ZN4Task5startEv)
    i._ZN4TaskC2EPKcPyj12osPriority_t        0x0800947c   Section        0  task.o(i._ZN4TaskC2EPKcPyj12osPriority_t)
    i._ZN5ELock5vInitEv                      0x080094a8   Section        0  elock.o(i._ZN5ELock5vInitEv)
    i._ZN5Event14onStatusChangeEhhh          0x080094f8   Section        0  event.o(i._ZN5Event14onStatusChangeEhhh)
    i._ZN5Event8onResultEPKht                0x080094fa   Section        0  event.o(i._ZN5Event8onResultEPKht)
    i._ZN5Event8onReturnEh                   0x080094fc   Section        0  event.o(i._ZN5Event8onReturnEh)
    i._ZN5EventC1Ev                          0x08009500   Section        0  messagedispensetask.o(i._ZN5EventC1Ev)
    i._ZN6Fridge12initMotoGpioEv             0x08009510   Section        0  fridge.o(i._ZN6Fridge12initMotoGpioEv)
    i._ZN6Fridge14initMotoDriverEv           0x0800958c   Section        0  fridge.o(i._ZN6Fridge14initMotoDriverEv)
    i._ZN6Fridge15initCounterGpioEv          0x080095c4   Section        0  fridge.o(i._ZN6Fridge15initCounterGpioEv)
    i._ZN6Fridge17initCounterDriverEv        0x08009628   Section        0  fridge.o(i._ZN6Fridge17initCounterDriverEv)
    i._ZN6Fridge5xOpenEtj                    0x08009664   Section        0  fridge.o(i._ZN6Fridge5xOpenEtj)
    i._ZN6Fridge6isOpenEv                    0x08009718   Section        0  fridge.o(i._ZN6Fridge6isOpenEv)
    i._ZN6Fridge6xCloseEtj                   0x0800972c   Section        0  fridge.o(i._ZN6Fridge6xCloseEtj)
    i._ZN6Fridge7isCloseEv                   0x080097e0   Section        0  fridge.o(i._ZN6Fridge7isCloseEv)
    i._ZN6Fridge7vSetDirENS_3DirE            0x080097f4   Section        0  fridge.o(i._ZN6Fridge7vSetDirENS_3DirE)
    i._ZN6Fridge8instanceEv                  0x08009820   Section        0  delivertask.o(i._ZN6Fridge8instanceEv)
    i._ZN6FridgeC1Ev                         0x0800984c   Section        0  fridge.o(i._ZN6FridgeC1Ev)
    i._ZN6SenderC1EPKc                       0x08009880   Section        0  sender.o(i._ZN6SenderC1EPKc)
    i._ZN7Ds18b2010vWriteByteEh              0x080098a0   Section        0  ds18b20.o(i._ZN7Ds18b2010vWriteByteEh)
    i._ZN7Ds18b2012xCheckDeviceEv            0x080098dc   Section        0  ds18b20.o(i._ZN7Ds18b2012xCheckDeviceEv)
    i._ZN7Ds18b206vResetEv                   0x08009928   Section        0  ds18b20.o(i._ZN7Ds18b206vResetEv)
    i._ZN7Ds18b206vStartEv                   0x08009948   Section        0  ds18b20.o(i._ZN7Ds18b206vStartEv)
    i._ZN7Ds18b208xReadBitEv                 0x0800996c   Section        0  ds18b20.o(i._ZN7Ds18b208xReadBitEv)
    i._ZN7Ds18b209xGetValueEv                0x0800999c   Section        0  ds18b20.o(i._ZN7Ds18b209xGetValueEv)
    i._ZN7Ds18b209xReadByteEv                0x080099dc   Section        0  ds18b20.o(i._ZN7Ds18b209xReadByteEv)
    i._ZN7Ds18b20C1Ev                        0x080099fc   Section        0  ds18b20.o(i._ZN7Ds18b20C1Ev)
    i._ZN7LogUart5writeEPKht                 0x08009a48   Section        0  loguart.o(i._ZN7LogUart5writeEPKht)
    i._ZN7LogUart5writeEh                    0x08009a78   Section        0  loguart.o(i._ZN7LogUart5writeEh)
    i._ZN7LogUart8instanceEv                 0x08009a88   Section        0  logevent.o(i._ZN7LogUart8instanceEv)
    i._ZN7LogUartC1Ev                        0x08009ab4   Section        0  loguart.o(i._ZN7LogUartC1Ev)
    i._ZN8BootTask3runEv                     0x08009c00   Section        0  boottask.o(i._ZN8BootTask3runEv)
    i._ZN8BootTaskC1Ev                       0x08009e68   Section        0  boottask.o(i._ZN8BootTaskC1Ev)
    i._ZN8LogEvent14onStatusChangeEhhh       0x08009e90   Section        0  logevent.o(i._ZN8LogEvent14onStatusChangeEhhh)
    i._ZN8LogEvent15onCheckRobotArmEv        0x08009edc   Section        0  logevent.o(i._ZN8LogEvent15onCheckRobotArmEv)
    i._ZN8LogEvent7disposeEv                 0x08009f98   Section        0  logevent.o(i._ZN8LogEvent7disposeEv)
    i._ZN8LogEvent8onReturnEh                0x0800a010   Section        0  logevent.o(i._ZN8LogEvent8onReturnEh)
    i._ZN8MainUart5writeEPKht                0x0800a032   Section        0  mainuart.o(i._ZN8MainUart5writeEPKht)
    i._ZN8MainUart5writeEh                   0x0800a060   Section        0  mainuart.o(i._ZN8MainUart5writeEh)
    i._ZN8MainUart8instanceEv                0x0800a074   Section        0  mainevent.o(i._ZN8MainUart8instanceEv)
    i._ZN8MainUartC1Ev                       0x0800a0a0   Section        0  mainuart.o(i._ZN8MainUartC1Ev)
    i._ZN8Protocol5buildEPh                  0x0800a1a4   Section        0  protocol.o(i._ZN8Protocol5buildEPh)
    i._ZN8Protocol7append1Eh                 0x0800a1e8   Section        0  bluetoothevent.o(i._ZN8Protocol7append1Eh)
    i._ZN8Protocol7append2Et                 0x0800a1f6   Section        0  mainevent.o(i._ZN8Protocol7append2Et)
    i._ZN8ProtocolC1EPh                      0x0800a21a   Section        0  mainevent.o(i._ZN8ProtocolC1EPh)
    i._ZN8Receiver3putEPK5Event              0x0800a222   Section        0  mainevent.o(i._ZN8Receiver3putEPK5Event)
    i._ZN8Receiver4recvEP5Eventj             0x0800a22c   Section        0  messagedispensetask.o(i._ZN8Receiver4recvEP5Eventj)
    i._ZN8ReceiverC1EPKcPyjj                 0x0800a236   Section        0  receiver.o(i._ZN8ReceiverC1EPKcPyjj)
    i._ZN8SysTimer5vInitEv                   0x0800a26c   Section        0  systimer.o(i._ZN8SysTimer5vInitEv)
    i._ZN8SysTimer8vDelayUsEt                0x0800a2a4   Section        0  systimer.o(i._ZN8SysTimer8vDelayUsEt)
    i._ZN9Bluetooth10initDriverEv            0x0800a2b8   Section        0  bluetooth.o(i._ZN9Bluetooth10initDriverEv)
    i._ZN9Bluetooth5writeEPKht               0x0800a3a8   Section        0  bluetooth.o(i._ZN9Bluetooth5writeEPKht)
    i._ZN9Bluetooth5writeEh                  0x0800a3d8   Section        0  bluetooth.o(i._ZN9Bluetooth5writeEh)
    i._ZN9Bluetooth8instanceEv               0x0800a3ec   Section        0  bluetoothevent.o(i._ZN9Bluetooth8instanceEv)
    i._ZN9BluetoothC1Ev                      0x0800a418   Section        0  bluetooth.o(i._ZN9BluetoothC1Ev)
    i._ZN9MainEvent11onOTANotifyEv           0x0800a460   Section        0  mainevent.o(i._ZN9MainEvent11onOTANotifyEv)
    i._ZN9MainEvent5writeEhh                 0x0800a4b4   Section        0  mainevent.o(i._ZN9MainEvent5writeEhh)
    i._ZN9MainEvent7disposeEv                0x0800a4ea   Section        0  mainevent.o(i._ZN9MainEvent7disposeEv)
    i._ZN9MainEvent8onResultEPKht            0x0800a550   Section        0  mainevent.o(i._ZN9MainEvent8onResultEPKht)
    i._ZN9MainEvent9onPackageEv              0x0800a568   Section        0  mainevent.o(i._ZN9MainEvent9onPackageEv)
    i._ZN9PickMotor12initMotoGpioEv          0x0800a5d8   Section        0  pickmotor.o(i._ZN9PickMotor12initMotoGpioEv)
    i._ZN9PickMotor14initMotoDriverEv        0x0800a668   Section        0  pickmotor.o(i._ZN9PickMotor14initMotoDriverEv)
    i._ZN9PickMotor15initCounterGpioEv       0x0800a6b0   Section        0  pickmotor.o(i._ZN9PickMotor15initCounterGpioEv)
    i._ZN9PickMotor17initCounterDriverEv     0x0800a708   Section        0  pickmotor.o(i._ZN9PickMotor17initCounterDriverEv)
    i._ZN9PickMotor17xGoDownOfAbsoluteEtjj   0x0800a738   Section        0  pickmotor.o(i._ZN9PickMotor17xGoDownOfAbsoluteEtjj)
    i._ZN9PickMotor25xGoDownAndCheckCompressorEtjj 0x0800a768   Section        0  pickmotor.o(i._ZN9PickMotor25xGoDownAndCheckCompressorEtjj)
    i._ZN9PickMotor5isTopEv                  0x0800a7f4   Section        0  pickmotor.o(i._ZN9PickMotor5isTopEv)
    i._ZN9PickMotor5xGoUpEtjj                0x0800a808   Section        0  pickmotor.o(i._ZN9PickMotor5xGoUpEtjj)
    i._ZN9PickMotor7vSetDirENS_3DirE         0x0800a964   Section        0  pickmotor.o(i._ZN9PickMotor7vSetDirENS_3DirE)
    i._ZN9PickMotor7xGoDownEtjj              0x0800a998   Section        0  pickmotor.o(i._ZN9PickMotor7xGoDownEtjj)
    i._ZN9PickMotor8instanceEv               0x0800aa40   Section        0  delivertask.o(i._ZN9PickMotor8instanceEv)
    i._ZN9PickMotor9isCheckedEv              0x0800aa6c   Section        0  pickmotor.o(i._ZN9PickMotor9isCheckedEv)
    i._ZN9PickMotorC1Ev                      0x0800aaa4   Section        0  pickmotor.o(i._ZN9PickMotorC1Ev)
    i._ZN9RobotArm111xRotationToEtjt         0x0800aaec   Section        0  robotarm1.o(i._ZN9RobotArm111xRotationToEtjt)
    i._ZN9RobotArm112initMotoGpioEv          0x0800abd4   Section        0  robotarm1.o(i._ZN9RobotArm112initMotoGpioEv)
    i._ZN9RobotArm114initMotoDriverEv        0x0800ac9c   Section        0  robotarm1.o(i._ZN9RobotArm114initMotoDriverEv)
    i._ZN9RobotArm115initCounterGpioEv       0x0800acf8   Section        0  robotarm1.o(i._ZN9RobotArm115initCounterGpioEv)
    i._ZN9RobotArm117initCounterDriverEv     0x0800ad50   Section        0  robotarm1.o(i._ZN9RobotArm117initCounterDriverEv)
    i._ZN9RobotArm120xGetAbsolutePositionEv  0x0800ad88   Section        0  robotarm1.o(i._ZN9RobotArm120xGetAbsolutePositionEv)
    i._ZN9RobotArm17vSetDirENS_3DirE         0x0800adac   Section        0  robotarm1.o(i._ZN9RobotArm17vSetDirENS_3DirE)
    i._ZN9RobotArm18instanceEv               0x0800add4   Section        0  delivertask.o(i._ZN9RobotArm18instanceEv)
    i._ZN9RobotArm1C1Ev                      0x0800ae00   Section        0  robotarm1.o(i._ZN9RobotArm1C1Ev)
    i._ZN9RobotArm211xRotationToEtjt         0x0800ae64   Section        0  robotarm2.o(i._ZN9RobotArm211xRotationToEtjt)
    i._ZN9RobotArm212initMotoGpioEv          0x0800af4c   Section        0  robotarm2.o(i._ZN9RobotArm212initMotoGpioEv)
    i._ZN9RobotArm214vInversedBrakeEv        0x0800af8c   Section        0  robotarm2.o(i._ZN9RobotArm214vInversedBrakeEv)
    i._ZN9RobotArm215initCounterGpioEv       0x0800afc4   Section        0  robotarm2.o(i._ZN9RobotArm215initCounterGpioEv)
    i._ZN9RobotArm217initCounterDriverEv     0x0800b01c   Section        0  robotarm2.o(i._ZN9RobotArm217initCounterDriverEv)
    i._ZN9RobotArm220xGetAbsolutePositionEv  0x0800b070   Section        0  robotarm2.o(i._ZN9RobotArm220xGetAbsolutePositionEv)
    i._ZN9RobotArm27vSetDirENS_3DirE         0x0800b094   Section        0  robotarm2.o(i._ZN9RobotArm27vSetDirENS_3DirE)
    i._ZN9RobotArm28instanceEv               0x0800b0bc   Section        0  delivertask.o(i._ZN9RobotArm28instanceEv)
    i._ZN9RobotArm2C1Ev                      0x0800b0e8   Section        0  robotarm2.o(i._ZN9RobotArm2C1Ev)
    i._ZNK5Event17isCorrectOfResultEv        0x0800b144   Section        0  event.o(i._ZNK5Event17isCorrectOfResultEv)
    i._ZNK5Event4arg2Eh                      0x0800b186   Section        0  delivertask.o(i._ZNK5Event4arg2Eh)
    i._ZNK5Event5checkEv                     0x0800b196   Section        0  event.o(i._ZNK5Event5checkEv)
    i._ZNK5Event9isCorrectEv                 0x0800b1b2   Section        0  event.o(i._ZNK5Event9isCorrectEv)
    i.__ARM_fpclassify                       0x0800b1ec   Section        0  fpclassify.o(i.__ARM_fpclassify)
    i.__cxa_guard_acquire                    0x0800b21c   Section        0  cxa_guard_acquire.o(i.__cxa_guard_acquire)
    i.__cxa_pure_virtual                     0x0800b22c   Section        0  pure_virt.o(i.__cxa_pure_virtual)
    i.__sti___11_LogUart_cpp_f947086d        0x0800b234   Section        0  loguart.o(i.__sti___11_LogUart_cpp_f947086d)
    __sti___11_LogUart_cpp_f947086d          0x0800b235   Thumb Code    14  loguart.o(i.__sti___11_LogUart_cpp_f947086d)
    i.__sti___12_MainUart_cpp_f0dc2c7d       0x0800b24c   Section        0  mainuart.o(i.__sti___12_MainUart_cpp_f0dc2c7d)
    __sti___12_MainUart_cpp_f0dc2c7d         0x0800b24d   Thumb Code    14  mainuart.o(i.__sti___12_MainUart_cpp_f0dc2c7d)
    i.__sti___13_Bluetooth_cpp_6b41d81d      0x0800b264   Section        0  bluetooth.o(i.__sti___13_Bluetooth_cpp_6b41d81d)
    __sti___13_Bluetooth_cpp_6b41d81d        0x0800b265   Thumb Code    14  bluetooth.o(i.__sti___13_Bluetooth_cpp_6b41d81d)
    i._is_digit                              0x0800b27c   Section        0  __printf_wp.o(i._is_digit)
    i._mutex_acquire                         0x0800b28a   Section        0  rtx_lib.o(i._mutex_acquire)
    __tagsym$$used                           0x0800b28b   Number         0  rtx_lib.o(i._mutex_acquire)
    i._mutex_free                            0x0800b2a6   Section        0  rtx_lib.o(i._mutex_free)
    __tagsym$$used                           0x0800b2a7   Number         0  rtx_lib.o(i._mutex_free)
    i._mutex_initialize                      0x0800b2ac   Section        0  rtx_lib.o(i._mutex_initialize)
    __tagsym$$used                           0x0800b2ad   Number         0  rtx_lib.o(i._mutex_initialize)
    i._mutex_release                         0x0800b2ca   Section        0  rtx_lib.o(i._mutex_release)
    __tagsym$$used                           0x0800b2cb   Number         0  rtx_lib.o(i._mutex_release)
    i._platform_post_stackheap_init          0x0800b2e2   Section        0  rtx_lib.o(i._platform_post_stackheap_init)
    i.main                                   0x0800b2e8   Section        0  main.o(i.main)
    i.osRtxErrorNotify                       0x0800b320   Section        0  rtx_config.o(i.osRtxErrorNotify)
    i.osRtxIdleThread                        0x0800b322   Section        0  rtx_config.o(i.osRtxIdleThread)
    i.os_kernel_is_active                    0x0800b324   Section        0  rtx_lib.o(i.os_kernel_is_active)
    os_kernel_is_active                      0x0800b325   Thumb Code    28  rtx_lib.o(i.os_kernel_is_active)
    locale$$code                             0x0800b344   Section       44  lc_numeric_c.o(locale$$code)
    locale$$code                             0x0800b370   Section       44  lc_ctype_c.o(locale$$code)
    x$fpl$fpinit                             0x0800b39c   Section       10  fpinit.o(x$fpl$fpinit)
    $v0                                      0x0800b39c   Number         0  fpinit.o(x$fpl$fpinit)
    x$fpl$printf1                            0x0800b3a6   Section        4  printf1.o(x$fpl$printf1)
    $v0                                      0x0800b3a6   Number         0  printf1.o(x$fpl$printf1)
    x$fpl$usenofp                            0x0800b3aa   Section        0  usenofp.o(x$fpl$usenofp)
    .constdata                               0x0800b3ac   Section       36  rtx_lib.o(.constdata)
    os_idle_thread_attr                      0x0800b3ac   Data          36  rtx_lib.o(.constdata)
    .constdata                               0x0800b3d0   Section       36  rtx_lib.o(.constdata)
    os_timer_thread_attr                     0x0800b3d0   Data          36  rtx_lib.o(.constdata)
    .constdata                               0x0800b3f4   Section       24  rtx_lib.o(.constdata)
    os_timer_mq_attr                         0x0800b3f4   Data          24  rtx_lib.o(.constdata)
    .constdata                               0x0800b40c   Section        4  rtx_lib.o(.constdata)
    .constdata                               0x0800b410   Section        8  _printf_wctomb.o(.constdata)
    initial_mbstate                          0x0800b410   Data           8  _printf_wctomb.o(.constdata)
    .constdata                               0x0800b418   Section       40  _printf_hex_int_ll_ptr.o(.constdata)
    uc_hextab                                0x0800b418   Data          20  _printf_hex_int_ll_ptr.o(.constdata)
    lc_hextab                                0x0800b42c   Data          20  _printf_hex_int_ll_ptr.o(.constdata)
    .constdata                               0x0800b440   Section       17  __printf_flags_ss_wp.o(.constdata)
    maptable                                 0x0800b440   Data          17  __printf_flags_ss_wp.o(.constdata)
    .constdata                               0x0800b454   Section      148  bigflt0.o(.constdata)
    tenpwrs_x                                0x0800b454   Data          60  bigflt0.o(.constdata)
    tenpwrs_i                                0x0800b490   Data          64  bigflt0.o(.constdata)
    .constdata__ZTV11DeliverTask             0x0800b4e8   Section       12  delivertask.o(.constdata__ZTV11DeliverTask)
    .constdata__ZTV14BluetoothEvent          0x0800b4f4   Section       20  bluetoothevent.o(.constdata__ZTV14BluetoothEvent)
    .constdata__ZTV16StatusUpdateTask        0x0800b508   Section       12  statusupdatetask.o(.constdata__ZTV16StatusUpdateTask)
    .constdata__ZTV19MessageDispenseTask     0x0800b514   Section       12  messagedispensetask.o(.constdata__ZTV19MessageDispenseTask)
    .constdata__ZTV4Task                     0x0800b520   Section       12  task.o(.constdata__ZTV4Task)
    .constdata__ZTV5Event                    0x0800b52c   Section       20  event.o(.constdata__ZTV5Event)
    .constdata__ZTV7LogUart                  0x0800b540   Section       12  loguart.o(.constdata__ZTV7LogUart)
    .constdata__ZTV8BootTask                 0x0800b54c   Section       12  boottask.o(.constdata__ZTV8BootTask)
    .constdata__ZTV8LogEvent                 0x0800b558   Section       20  logevent.o(.constdata__ZTV8LogEvent)
    .constdata__ZTV8MainUart                 0x0800b56c   Section       12  mainuart.o(.constdata__ZTV8MainUart)
    .constdata__ZTV9Bluetooth                0x0800b578   Section       12  bluetooth.o(.constdata__ZTV9Bluetooth)
    .constdata__ZTV9MainEvent                0x0800b584   Section       20  mainevent.o(.constdata__ZTV9MainEvent)
    .rodata                                  0x0800b598   Section      104  rtx_lib.o(.rodata)
    __tagsym$$used                           0x0800b598   Number         0  rtx_lib.o(.rodata)
    [Anonymous Symbol]                       0x0800b600   Section        0  rtx_kernel.o(.rodata.str1.4)
    .L.str                                   0x0800b600   Data          11  rtx_kernel.o(.rodata.str1.4)
    locale$$data                             0x0800b62c   Section       28  lc_numeric_c.o(locale$$data)
    __lcnum_c_name                           0x0800b630   Data           2  lc_numeric_c.o(locale$$data)
    __lcnum_c_start                          0x0800b638   Data           0  lc_numeric_c.o(locale$$data)
    __lcnum_c_point                          0x0800b644   Data           0  lc_numeric_c.o(locale$$data)
    __lcnum_c_thousands                      0x0800b646   Data           0  lc_numeric_c.o(locale$$data)
    __lcnum_c_grouping                       0x0800b647   Data           0  lc_numeric_c.o(locale$$data)
    locale$$data                             0x0800b648   Section      272  lc_ctype_c.o(locale$$data)
    __lcnum_c_end                            0x0800b648   Data           0  lc_numeric_c.o(locale$$data)
    __lcctype_c_name                         0x0800b64c   Data           2  lc_ctype_c.o(locale$$data)
    __lcctype_c_start                        0x0800b654   Data           0  lc_ctype_c.o(locale$$data)
    .init_array                              0x0800b758   Section        4  bluetooth.o(.init_array)
    __lcctype_c_end                          0x0800b758   Data           0  lc_ctype_c.o(locale$$data)
    .init_array                              0x0800b75c   Section        4  loguart.o(.init_array)
    .init_array                              0x0800b760   Section        4  mainuart.o(.init_array)
    .init_array                              0x0800b764   Section        0  init_aeabi.o(.init_array)
    .bss.os                                  0x20000000   Section     4096  rtx_lib.o(.bss.os)
    os_mem                                   0x20000000   Data        4096  rtx_lib.o(.bss.os)
    .bss.os                                  0x20001000   Section       64  rtx_lib.o(.bss.os)
    os_isr_queue                             0x20001000   Data          64  rtx_lib.o(.bss.os)
    .bss.os.msgqueue.cb                      0x20001040   Section       52  rtx_lib.o(.bss.os.msgqueue.cb)
    os_timer_mq_cb                           0x20001040   Data          52  rtx_lib.o(.bss.os.msgqueue.cb)
    .bss.os.msgqueue.mem                     0x20001074   Section       80  rtx_lib.o(.bss.os.msgqueue.mem)
    os_timer_mq_data                         0x20001074   Data          80  rtx_lib.o(.bss.os.msgqueue.mem)
    .bss.os.thread.cb                        0x200010c4   Section       68  rtx_lib.o(.bss.os.thread.cb)
    os_idle_thread_cb                        0x200010c4   Data          68  rtx_lib.o(.bss.os.thread.cb)
    .bss.os.thread.cb                        0x20001108   Section       68  rtx_lib.o(.bss.os.thread.cb)
    os_timer_thread_cb                       0x20001108   Data          68  rtx_lib.o(.bss.os.thread.cb)
    .bss.os.thread.stack                     0x20001150   Section      256  rtx_lib.o(.bss.os.thread.stack)
    os_idle_thread_stack                     0x20001150   Data         256  rtx_lib.o(.bss.os.thread.stack)
    .bss.os.thread.stack                     0x20001250   Section      256  rtx_lib.o(.bss.os.thread.stack)
    os_timer_thread_stack                    0x20001250   Data         256  rtx_lib.o(.bss.os.thread.stack)
    .data                                    0x20001350   Section       20  system_stm32f4xx.o(.data)
    .data                                    0x20001364   Section        4  bluetooth.o(.data)
    lastIndex                                0x20001364   Data           4  bluetooth.o(.data)
    .data                                    0x20001368   Section        4  loguart.o(.data)
    lastIndex                                0x20001368   Data           4  loguart.o(.data)
    .data                                    0x2000136c   Section        4  mainuart.o(.data)
    lastIndex                                0x2000136c   Data           4  mainuart.o(.data)
    .data                                    0x20001370   Section        1  rtx_lib.o(.data)
    os_kernel_active                         0x20001370   Data           1  rtx_lib.o(.data)
    .data__ZZN10Compressor8instanceEvE3com   0x20001420   Section        5  boottask.o(.data__ZZN10Compressor8instanceEvE3com)
    Compressor::instance()::com              0x20001420   Number         0  boottask.o(.data__ZZN10Compressor8instanceEvE3com)
    .data__ZZN10OTAManager8instanceEvE1t     0x20001428   Section        4  mainevent.o(.data__ZZN10OTAManager8instanceEvE1t)
    OTAManager::instance()::t                0x20001428   Number         0  mainevent.o(.data__ZZN10OTAManager8instanceEvE1t)
    .data__ZZN11DeliverTask8instanceEvE8INSTANCE 0x2000142c   Section        4  bluetoothevent.o(.data__ZZN11DeliverTask8instanceEvE8INSTANCE)
    DeliverTask::instance()::INSTANCE        0x2000142c   Number         0  bluetoothevent.o(.data__ZZN11DeliverTask8instanceEvE8INSTANCE)
    .data__ZZN11FlashMemory8instanceEvE1m    0x20001430   Section        4  bluetoothevent.o(.data__ZZN11FlashMemory8instanceEvE1m)
    FlashMemory::instance()::m               0x20001430   Number         0  bluetoothevent.o(.data__ZZN11FlashMemory8instanceEvE1m)
    .data__ZZN11MotorDriver8instanceEvE6driver 0x20001434   Section        5  boottask.o(.data__ZZN11MotorDriver8instanceEvE6driver)
    MotorDriver::instance()::driver          0x20001434   Number         0  boottask.o(.data__ZZN11MotorDriver8instanceEvE6driver)
    .data__ZZN14PositionSwitch8instanceEvE8instance 0x2000143c   Section        4  boottask.o(.data__ZZN14PositionSwitch8instanceEvE8instance)
    PositionSwitch::instance()::instance     0x2000143c   Number         0  boottask.o(.data__ZZN14PositionSwitch8instanceEvE8instance)
    .data__ZZN16StatusUpdateTask8instanceEvE4task 0x20001440   Section        4  boottask.o(.data__ZZN16StatusUpdateTask8instanceEvE4task)
    StatusUpdateTask::instance()::task       0x20001440   Number         0  boottask.o(.data__ZZN16StatusUpdateTask8instanceEvE4task)
    .data__ZZN19MessageDispenseTask8instanceEvE8INSTANCE 0x20001444   Section        4  boottask.o(.data__ZZN19MessageDispenseTask8instanceEvE8INSTANCE)
    MessageDispenseTask::instance()::INSTANCE 0x20001444   Number         0  boottask.o(.data__ZZN19MessageDispenseTask8instanceEvE8INSTANCE)
    .data__ZZN3Led8instanceEvE1l             0x20001448   Section        5  boottask.o(.data__ZZN3Led8instanceEvE1l)
    Led::instance()::l                       0x20001448   Number         0  boottask.o(.data__ZZN3Led8instanceEvE1l)
    .data__ZZN6Fridge8instanceEvE6fridge     0x20001450   Section        4  boottask.o(.data__ZZN6Fridge8instanceEvE6fridge)
    Fridge::instance()::fridge               0x20001450   Number         0  boottask.o(.data__ZZN6Fridge8instanceEvE6fridge)
    .data__ZZN7Ds18b208instanceEvE6device    0x20001454   Section        5  boottask.o(.data__ZZN7Ds18b208instanceEvE6device)
    Ds18b20::instance()::device              0x20001454   Number         0  boottask.o(.data__ZZN7Ds18b208instanceEvE6device)
    .data__ZZN7LogUart8instanceEvE4uart      0x2000145c   Section        4  logevent.o(.data__ZZN7LogUart8instanceEvE4uart)
    LogUart::instance()::uart                0x2000145c   Number         0  logevent.o(.data__ZZN7LogUart8instanceEvE4uart)
    .data__ZZN8BootTask8instanceEvE4task     0x20001460   Section        4  main.o(.data__ZZN8BootTask8instanceEvE4task)
    BootTask::instance()::task               0x20001460   Number         0  main.o(.data__ZZN8BootTask8instanceEvE4task)
    .data__ZZN8MainUart8instanceEvE4uart     0x20001464   Section        4  mainevent.o(.data__ZZN8MainUart8instanceEvE4uart)
    MainUart::instance()::uart               0x20001464   Number         0  mainevent.o(.data__ZZN8MainUart8instanceEvE4uart)
    .data__ZZN9Bluetooth8instanceEvE3ble     0x20001468   Section        4  bluetoothevent.o(.data__ZZN9Bluetooth8instanceEvE3ble)
    Bluetooth::instance()::ble               0x20001468   Number         0  bluetoothevent.o(.data__ZZN9Bluetooth8instanceEvE3ble)
    .data__ZZN9PickMotor8instanceEvE9pickMotor 0x2000146c   Section        4  boottask.o(.data__ZZN9PickMotor8instanceEvE9pickMotor)
    PickMotor::instance()::pickMotor         0x2000146c   Number         0  boottask.o(.data__ZZN9PickMotor8instanceEvE9pickMotor)
    .data__ZZN9RobotArm18instanceEvE1r       0x20001470   Section        4  bluetoothevent.o(.data__ZZN9RobotArm18instanceEvE1r)
    RobotArm1::instance()::r                 0x20001470   Number         0  bluetoothevent.o(.data__ZZN9RobotArm18instanceEvE1r)
    .data__ZZN9RobotArm28instanceEvE8instance 0x20001474   Section        4  bluetoothevent.o(.data__ZZN9RobotArm28instanceEvE8instance)
    RobotArm2::instance()::instance          0x20001474   Number         0  bluetoothevent.o(.data__ZZN9RobotArm28instanceEvE8instance)
    .bss                                     0x20001478   Section      688  bluetooth.o(.bss)
    RecvBuffer                               0x20001478   Data         512  bluetooth.o(.bss)
    RecvSingleBuffer                         0x20001678   Data          64  bluetooth.o(.bss)
    BleEnv                                   0x200016b8   Data         112  bluetooth.o(.bss)
    .bss                                     0x20001728   Section      688  loguart.o(.bss)
    RecvBuffer                               0x20001728   Data         512  loguart.o(.bss)
    RecvSingleBuffer                         0x20001928   Data          64  loguart.o(.bss)
    MsgRecv                                  0x20001968   Data         112  loguart.o(.bss)
    .bss                                     0x200019d8   Section      880  mainuart.o(.bss)
    RecvBuffer                               0x200019d8   Data         512  mainuart.o(.bss)
    RecvSingleBuffer                         0x20001bd8   Data         256  mainuart.o(.bss)
    MsgRecv                                  0x20001cd8   Data         112  mainuart.o(.bss)
    .bss                                     0x20001d48   Section       96  libspace.o(.bss)
    .bss__ZZN10OTAManager8instanceEvE1t      0x20001da8   Section     4216  mainevent.o(.bss__ZZN10OTAManager8instanceEvE1t)
    .bss__ZZN11DeliverTask8instanceEvE8INSTANCE 0x20002e20   Section     2784  bluetoothevent.o(.bss__ZZN11DeliverTask8instanceEvE8INSTANCE)
    .bss__ZZN11FlashMemory8instanceEvE1m     0x20003900   Section     4096  bluetoothevent.o(.bss__ZZN11FlashMemory8instanceEvE1m)
    .bss__ZZN14PositionSwitch8instanceEvE8instance 0x20004900   Section       56  boottask.o(.bss__ZZN14PositionSwitch8instanceEvE8instance)
    .bss__ZZN16StatusUpdateTask8instanceEvE4task 0x20004938   Section      648  boottask.o(.bss__ZZN16StatusUpdateTask8instanceEvE4task)
    .bss__ZZN19MessageDispenseTask8instanceEvE8INSTANCE 0x20004bc0   Section     1152  boottask.o(.bss__ZZN19MessageDispenseTask8instanceEvE8INSTANCE)
    .bss__ZZN6Fridge8instanceEvE6fridge      0x20005040   Section       88  boottask.o(.bss__ZZN6Fridge8instanceEvE6fridge)
    .bss__ZZN7LogUart8instanceEvE4uart       0x20005098   Section     3896  logevent.o(.bss__ZZN7LogUart8instanceEvE4uart)
    .bss__ZZN8BootTask8instanceEvE4task      0x20005fd0   Section      640  main.o(.bss__ZZN8BootTask8instanceEvE4task)
    .bss__ZZN8MainUart8instanceEvE4uart      0x20006250   Section     2792  mainevent.o(.bss__ZZN8MainUart8instanceEvE4uart)
    .bss__ZZN9Bluetooth8instanceEvE3ble      0x20006d38   Section    12632  bluetoothevent.o(.bss__ZZN9Bluetooth8instanceEvE3ble)
    .bss__ZZN9PickMotor8instanceEvE9pickMotor 0x20009e90   Section       56  boottask.o(.bss__ZZN9PickMotor8instanceEvE9pickMotor)
    .bss__ZZN9RobotArm18instanceEvE1r        0x20009ec8   Section       88  bluetoothevent.o(.bss__ZZN9RobotArm18instanceEvE1r)
    .bss__ZZN9RobotArm28instanceEvE8instance 0x20009f20   Section       88  bluetoothevent.o(.bss__ZZN9RobotArm28instanceEvE8instance)
    HEAP                                     0x20009f78   Section        0  startup_stm32f40_41xxx.o(HEAP)
    STACK                                    0x20009f78   Section     1024  startup_stm32f40_41xxx.o(STACK)
    Heap_Mem                                 0x20009f78   Data           0  startup_stm32f40_41xxx.o(HEAP)
    Stack_Mem                                0x20009f78   Data        1024  startup_stm32f40_41xxx.o(STACK)
    __initial_sp                             0x2000a378   Data           0  startup_stm32f40_41xxx.o(STACK)

    Global Symbols

    Symbol Name                              Value     Ov Type        Size  Object(Section)

    BuildAttributes$$THM_ISAv4$E$P$D$K$B$S$7EM$VFPi3$EXTD16$VFPS$VFMA$PE$A:L22UL41UL21$X:L11$S22US41US21$IEEE1$IW$~IW$USESV6$~STKCKD$USESV7$~SHL$OTIME$ROPI$IEEEJ$EBA8$UX$STANDARDLIB$REQ8$PRES8$EABIv2 0x00000000   Number         0  anon$$obj.o ABSOLUTE
    __ARM_use_no_argv                        0x00000000   Number         0  main.o ABSOLUTE
    _printf_flags                            0x00000000   Number         0  printf_stubs.o ABSOLUTE
    _printf_return_value                     0x00000000   Number         0  printf_stubs.o ABSOLUTE
    _printf_sizespec                         0x00000000   Number         0  printf_stubs.o ABSOLUTE
    _printf_widthprec                        0x00000000   Number         0  printf_stubs.o ABSOLUTE
    __ARM::default_unexpected_handler()       - Undefined Weak Reference
    __ARM_exceptions_buffer_required          - Undefined Weak Reference
    __ARM_exceptions_init                     - Undefined Weak Reference
    __alloca_initialize                       - Undefined Weak Reference
    __arm_preinit_                            - Undefined Weak Reference
    __cxa_finalize                            - Undefined Weak Reference
    __sigvec_lookup                           - Undefined Weak Reference
    __user_heap_extent                        - Undefined Weak Reference
    _atexit_init                              - Undefined Weak Reference
    _call_atexit_fns                          - Undefined Weak Reference
    _clock_init                               - Undefined Weak Reference
    _fp_trap_init                             - Undefined Weak Reference
    _fp_trap_shutdown                         - Undefined Weak Reference
    _get_lc_collate                           - Undefined Weak Reference
    _get_lc_monetary                          - Undefined Weak Reference
    _get_lc_time                              - Undefined Weak Reference
    _getenv_init                              - Undefined Weak Reference
    _handle_redirection                       - Undefined Weak Reference
    _initio                                   - Undefined Weak Reference
    _printf_fp_hex                            - Undefined Weak Reference
    _printf_mbtowc                            - Undefined Weak Reference
    _printf_wc                                - Undefined Weak Reference
    _rand_init                                - Undefined Weak Reference
    _signal_finish                            - Undefined Weak Reference
    _signal_init                              - Undefined Weak Reference
    _terminateio                              - Undefined Weak Reference
    __Vectors_Size                           0x00000188   Number         0  startup_stm32f40_41xxx.o ABSOLUTE
    __Vectors                                0x08004000   Data           4  startup_stm32f40_41xxx.o(RESET)
    __Vectors_End                            0x08004188   Data           0  startup_stm32f40_41xxx.o(RESET)
    __main                                   0x08004189   Thumb Code     8  __main.o(!!!main)
    __scatterload                            0x08004191   Thumb Code     0  __scatter.o(!!!scatter)
    __scatterload_rt2                        0x08004191   Thumb Code    44  __scatter.o(!!!scatter)
    __scatterload_rt2_thumb_only             0x08004191   Thumb Code     0  __scatter.o(!!!scatter)
    __scatterload_null                       0x0800419f   Thumb Code     0  __scatter.o(!!!scatter)
    __decompress                             0x080041c5   Thumb Code    58  __dczerorl.o(!!dczerorl)
    __decompress0                            0x080041c5   Thumb Code     0  __dczerorl.o(!!dczerorl)
    __scatterload_zeroinit                   0x08004201   Thumb Code    28  __scatter_zi.o(!!handler_zi)
    _printf_n                                0x0800421d   Thumb Code     0  _printf_n.o(.ARM.Collect$$_printf_percent$$00000001)
    _printf_percent                          0x0800421d   Thumb Code     0  _printf_percent.o(.ARM.Collect$$_printf_percent$$00000000)
    _printf_p                                0x08004223   Thumb Code     0  _printf_p.o(.ARM.Collect$$_printf_percent$$00000002)
    _printf_f                                0x08004229   Thumb Code     0  _printf_f.o(.ARM.Collect$$_printf_percent$$00000003)
    _printf_e                                0x0800422f   Thumb Code     0  _printf_e.o(.ARM.Collect$$_printf_percent$$00000004)
    _printf_g                                0x08004235   Thumb Code     0  _printf_g.o(.ARM.Collect$$_printf_percent$$00000005)
    _printf_a                                0x0800423b   Thumb Code     0  _printf_a.o(.ARM.Collect$$_printf_percent$$00000006)
    _printf_ll                               0x08004241   Thumb Code     0  _printf_ll.o(.ARM.Collect$$_printf_percent$$00000007)
    _printf_i                                0x0800424b   Thumb Code     0  _printf_i.o(.ARM.Collect$$_printf_percent$$00000008)
    _printf_d                                0x08004251   Thumb Code     0  _printf_d.o(.ARM.Collect$$_printf_percent$$00000009)
    _printf_u                                0x08004257   Thumb Code     0  _printf_u.o(.ARM.Collect$$_printf_percent$$0000000A)
    _printf_o                                0x0800425d   Thumb Code     0  _printf_o.o(.ARM.Collect$$_printf_percent$$0000000B)
    _printf_x                                0x08004263   Thumb Code     0  _printf_x.o(.ARM.Collect$$_printf_percent$$0000000C)
    _printf_lli                              0x08004269   Thumb Code     0  _printf_lli.o(.ARM.Collect$$_printf_percent$$0000000D)
    _printf_lld                              0x0800426f   Thumb Code     0  _printf_lld.o(.ARM.Collect$$_printf_percent$$0000000E)
    _printf_llu                              0x08004275   Thumb Code     0  _printf_llu.o(.ARM.Collect$$_printf_percent$$0000000F)
    _printf_llo                              0x0800427b   Thumb Code     0  _printf_llo.o(.ARM.Collect$$_printf_percent$$00000010)
    _printf_llx                              0x08004281   Thumb Code     0  _printf_llx.o(.ARM.Collect$$_printf_percent$$00000011)
    _printf_l                                0x08004287   Thumb Code     0  _printf_l.o(.ARM.Collect$$_printf_percent$$00000012)
    _printf_c                                0x08004291   Thumb Code     0  _printf_c.o(.ARM.Collect$$_printf_percent$$00000013)
    _printf_s                                0x08004297   Thumb Code     0  _printf_s.o(.ARM.Collect$$_printf_percent$$00000014)
    _printf_lc                               0x0800429d   Thumb Code     0  _printf_lc.o(.ARM.Collect$$_printf_percent$$00000015)
    _printf_ls                               0x080042a3   Thumb Code     0  _printf_ls.o(.ARM.Collect$$_printf_percent$$00000016)
    _printf_percent_end                      0x080042a9   Thumb Code     0  _printf_percent_end.o(.ARM.Collect$$_printf_percent$$00000017)
    __rt_lib_init                            0x080042ad   Thumb Code     0  libinit.o(.ARM.Collect$$libinit$$00000000)
    __rt_lib_init_fp_1                       0x080042af   Thumb Code     0  libinit2.o(.ARM.Collect$$libinit$$00000001)
    __rt_lib_init_heap_1                     0x080042b3   Thumb Code     0  libinit2.o(.ARM.Collect$$libinit$$0000000A)
    __rt_lib_init_lc_common                  0x080042b3   Thumb Code     0  libinit2.o(.ARM.Collect$$libinit$$0000000F)
    __rt_lib_init_preinit_1                  0x080042b3   Thumb Code     0  libinit2.o(.ARM.Collect$$libinit$$00000004)
    __rt_lib_init_rand_1                     0x080042b3   Thumb Code     0  libinit2.o(.ARM.Collect$$libinit$$0000000E)
    __rt_lib_init_user_alloc_1               0x080042b3   Thumb Code     0  libinit2.o(.ARM.Collect$$libinit$$0000000C)
    __rt_lib_init_lc_collate_1               0x080042b9   Thumb Code     0  libinit2.o(.ARM.Collect$$libinit$$00000011)
    __rt_lib_init_lc_ctype_2                 0x080042b9   Thumb Code     0  libinit2.o(.ARM.Collect$$libinit$$00000012)
    __rt_lib_init_lc_ctype_1                 0x080042c5   Thumb Code     0  libinit2.o(.ARM.Collect$$libinit$$00000013)
    __rt_lib_init_lc_monetary_1              0x080042c5   Thumb Code     0  libinit2.o(.ARM.Collect$$libinit$$00000015)
    __rt_lib_init_lc_numeric_2               0x080042c5   Thumb Code     0  libinit2.o(.ARM.Collect$$libinit$$00000016)
    __rt_lib_init_alloca_1                   0x080042cf   Thumb Code     0  libinit2.o(.ARM.Collect$$libinit$$0000002E)
    __rt_lib_init_argv_1                     0x080042cf   Thumb Code     0  libinit2.o(.ARM.Collect$$libinit$$0000002C)
    __rt_lib_init_atexit_1                   0x080042cf   Thumb Code     0  libinit2.o(.ARM.Collect$$libinit$$0000001B)
    __rt_lib_init_clock_1                    0x080042cf   Thumb Code     0  libinit2.o(.ARM.Collect$$libinit$$00000021)
    __rt_lib_init_cpp_2                      0x080042cf   Thumb Code     0  libinit2.o(.ARM.Collect$$libinit$$00000031)
    __rt_lib_init_exceptions_1               0x080042cf   Thumb Code     0  libinit2.o(.ARM.Collect$$libinit$$00000030)
    __rt_lib_init_fp_trap_1                  0x080042cf   Thumb Code     0  libinit2.o(.ARM.Collect$$libinit$$0000001F)
    __rt_lib_init_getenv_1                   0x080042cf   Thumb Code     0  libinit2.o(.ARM.Collect$$libinit$$00000023)
    __rt_lib_init_lc_numeric_1               0x080042cf   Thumb Code     0  libinit2.o(.ARM.Collect$$libinit$$00000017)
    __rt_lib_init_lc_time_1                  0x080042cf   Thumb Code     0  libinit2.o(.ARM.Collect$$libinit$$00000019)
    __rt_lib_init_signal_1                   0x080042cf   Thumb Code     0  libinit2.o(.ARM.Collect$$libinit$$0000001D)
    __rt_lib_init_stdio_1                    0x080042cf   Thumb Code     0  libinit2.o(.ARM.Collect$$libinit$$00000025)
    __rt_lib_init_cpp_1                      0x080042d3   Thumb Code     0  libinit2.o(.ARM.Collect$$libinit$$00000032)
    __rt_lib_init_return                     0x080042d3   Thumb Code     0  libinit2.o(.ARM.Collect$$libinit$$00000033)
    __rt_lib_shutdown                        0x080042d5   Thumb Code     0  libshutdown.o(.ARM.Collect$$libshutdown$$00000000)
    __rt_lib_shutdown_cpp_1                  0x080042d7   Thumb Code     0  libshutdown2.o(.ARM.Collect$$libshutdown$$00000002)
    __rt_lib_shutdown_fp_trap_1              0x080042d7   Thumb Code     0  libshutdown2.o(.ARM.Collect$$libshutdown$$00000007)
    __rt_lib_shutdown_heap_1                 0x080042d7   Thumb Code     0  libshutdown2.o(.ARM.Collect$$libshutdown$$0000000F)
    __rt_lib_shutdown_return                 0x080042d7   Thumb Code     0  libshutdown2.o(.ARM.Collect$$libshutdown$$00000010)
    __rt_lib_shutdown_signal_1               0x080042d7   Thumb Code     0  libshutdown2.o(.ARM.Collect$$libshutdown$$0000000A)
    __rt_lib_shutdown_stdio_1                0x080042d7   Thumb Code     0  libshutdown2.o(.ARM.Collect$$libshutdown$$00000004)
    __rt_lib_shutdown_user_alloc_1           0x080042d7   Thumb Code     0  libshutdown2.o(.ARM.Collect$$libshutdown$$0000000C)
    __rt_entry                               0x080042d9   Thumb Code     0  __rtentry.o(.ARM.Collect$$rtentry$$00000000)
    __rt_entry_presh_1                       0x080042d9   Thumb Code     0  __rtentry2.o(.ARM.Collect$$rtentry$$00000002)
    __rt_entry_sh                            0x080042d9   Thumb Code     0  __rtentry4.o(.ARM.Collect$$rtentry$$00000004)
    __rt_entry_postsh_1                      0x080042df   Thumb Code     0  __rtentry2.o(.ARM.Collect$$rtentry$$00000008)
    __rt_entry_li                            0x080042e7   Thumb Code     0  __rtentry2.o(.ARM.Collect$$rtentry$$0000000A)
    __rt_entry_main                          0x080042eb   Thumb Code     0  __rtentry2.o(.ARM.Collect$$rtentry$$0000000D)
    __rt_entry_postli_1                      0x080042eb   Thumb Code     0  __rtentry2.o(.ARM.Collect$$rtentry$$0000000C)
    __rt_exit                                0x080042f3   Thumb Code     0  rtexit.o(.ARM.Collect$$rtexit$$00000000)
    __rt_exit_ls                             0x080042f5   Thumb Code     0  rtexit2.o(.ARM.Collect$$rtexit$$00000003)
    __rt_exit_prels_1                        0x080042f5   Thumb Code     0  rtexit2.o(.ARM.Collect$$rtexit$$00000002)
    __rt_exit_exit                           0x080042f9   Thumb Code     0  rtexit2.o(.ARM.Collect$$rtexit$$00000004)
    Reset_Handler                            0x08004301   Thumb Code     8  startup_stm32f40_41xxx.o(.text)
    NMI_Handler                              0x08004309   Thumb Code     2  startup_stm32f40_41xxx.o(.text)
    HardFault_Handler                        0x0800430b   Thumb Code     2  startup_stm32f40_41xxx.o(.text)
    MemManage_Handler                        0x0800430d   Thumb Code     2  startup_stm32f40_41xxx.o(.text)
    BusFault_Handler                         0x0800430f   Thumb Code     2  startup_stm32f40_41xxx.o(.text)
    UsageFault_Handler                       0x08004311   Thumb Code     2  startup_stm32f40_41xxx.o(.text)
    DebugMon_Handler                         0x08004315   Thumb Code     2  startup_stm32f40_41xxx.o(.text)
    ADC_IRQHandler                           0x0800431b   Thumb Code     0  startup_stm32f40_41xxx.o(.text)
    CAN1_RX0_IRQHandler                      0x0800431b   Thumb Code     0  startup_stm32f40_41xxx.o(.text)
    CAN1_RX1_IRQHandler                      0x0800431b   Thumb Code     0  startup_stm32f40_41xxx.o(.text)
    CAN1_SCE_IRQHandler                      0x0800431b   Thumb Code     0  startup_stm32f40_41xxx.o(.text)
    CAN1_TX_IRQHandler                       0x0800431b   Thumb Code     0  startup_stm32f40_41xxx.o(.text)
    CAN2_RX0_IRQHandler                      0x0800431b   Thumb Code     0  startup_stm32f40_41xxx.o(.text)
    CAN2_RX1_IRQHandler                      0x0800431b   Thumb Code     0  startup_stm32f40_41xxx.o(.text)
    CAN2_SCE_IRQHandler                      0x0800431b   Thumb Code     0  startup_stm32f40_41xxx.o(.text)
    CAN2_TX_IRQHandler                       0x0800431b   Thumb Code     0  startup_stm32f40_41xxx.o(.text)
    CRYP_IRQHandler                          0x0800431b   Thumb Code     0  startup_stm32f40_41xxx.o(.text)
    DCMI_IRQHandler                          0x0800431b   Thumb Code     0  startup_stm32f40_41xxx.o(.text)
    DMA1_Stream0_IRQHandler                  0x0800431b   Thumb Code     0  startup_stm32f40_41xxx.o(.text)
    DMA1_Stream1_IRQHandler                  0x0800431b   Thumb Code     0  startup_stm32f40_41xxx.o(.text)
    DMA1_Stream2_IRQHandler                  0x0800431b   Thumb Code     0  startup_stm32f40_41xxx.o(.text)
    DMA1_Stream3_IRQHandler                  0x0800431b   Thumb Code     0  startup_stm32f40_41xxx.o(.text)
    DMA1_Stream4_IRQHandler                  0x0800431b   Thumb Code     0  startup_stm32f40_41xxx.o(.text)
    DMA1_Stream5_IRQHandler                  0x0800431b   Thumb Code     0  startup_stm32f40_41xxx.o(.text)
    DMA1_Stream6_IRQHandler                  0x0800431b   Thumb Code     0  startup_stm32f40_41xxx.o(.text)
    DMA1_Stream7_IRQHandler                  0x0800431b   Thumb Code     0  startup_stm32f40_41xxx.o(.text)
    DMA2_Stream0_IRQHandler                  0x0800431b   Thumb Code     0  startup_stm32f40_41xxx.o(.text)
    DMA2_Stream1_IRQHandler                  0x0800431b   Thumb Code     0  startup_stm32f40_41xxx.o(.text)
    DMA2_Stream2_IRQHandler                  0x0800431b   Thumb Code     0  startup_stm32f40_41xxx.o(.text)
    DMA2_Stream3_IRQHandler                  0x0800431b   Thumb Code     0  startup_stm32f40_41xxx.o(.text)
    DMA2_Stream4_IRQHandler                  0x0800431b   Thumb Code     0  startup_stm32f40_41xxx.o(.text)
    DMA2_Stream5_IRQHandler                  0x0800431b   Thumb Code     0  startup_stm32f40_41xxx.o(.text)
    DMA2_Stream6_IRQHandler                  0x0800431b   Thumb Code     0  startup_stm32f40_41xxx.o(.text)
    DMA2_Stream7_IRQHandler                  0x0800431b   Thumb Code     0  startup_stm32f40_41xxx.o(.text)
    ETH_IRQHandler                           0x0800431b   Thumb Code     0  startup_stm32f40_41xxx.o(.text)
    ETH_WKUP_IRQHandler                      0x0800431b   Thumb Code     0  startup_stm32f40_41xxx.o(.text)
    EXTI0_IRQHandler                         0x0800431b   Thumb Code     0  startup_stm32f40_41xxx.o(.text)
    EXTI15_10_IRQHandler                     0x0800431b   Thumb Code     0  startup_stm32f40_41xxx.o(.text)
    EXTI1_IRQHandler                         0x0800431b   Thumb Code     0  startup_stm32f40_41xxx.o(.text)
    EXTI2_IRQHandler                         0x0800431b   Thumb Code     0  startup_stm32f40_41xxx.o(.text)
    EXTI3_IRQHandler                         0x0800431b   Thumb Code     0  startup_stm32f40_41xxx.o(.text)
    EXTI4_IRQHandler                         0x0800431b   Thumb Code     0  startup_stm32f40_41xxx.o(.text)
    EXTI9_5_IRQHandler                       0x0800431b   Thumb Code     0  startup_stm32f40_41xxx.o(.text)
    FLASH_IRQHandler                         0x0800431b   Thumb Code     0  startup_stm32f40_41xxx.o(.text)
    FPU_IRQHandler                           0x0800431b   Thumb Code     0  startup_stm32f40_41xxx.o(.text)
    FSMC_IRQHandler                          0x0800431b   Thumb Code     0  startup_stm32f40_41xxx.o(.text)
    HASH_RNG_IRQHandler                      0x0800431b   Thumb Code     0  startup_stm32f40_41xxx.o(.text)
    I2C1_ER_IRQHandler                       0x0800431b   Thumb Code     0  startup_stm32f40_41xxx.o(.text)
    I2C1_EV_IRQHandler                       0x0800431b   Thumb Code     0  startup_stm32f40_41xxx.o(.text)
    I2C2_ER_IRQHandler                       0x0800431b   Thumb Code     0  startup_stm32f40_41xxx.o(.text)
    I2C2_EV_IRQHandler                       0x0800431b   Thumb Code     0  startup_stm32f40_41xxx.o(.text)
    I2C3_ER_IRQHandler                       0x0800431b   Thumb Code     0  startup_stm32f40_41xxx.o(.text)
    I2C3_EV_IRQHandler                       0x0800431b   Thumb Code     0  startup_stm32f40_41xxx.o(.text)
    OTG_FS_IRQHandler                        0x0800431b   Thumb Code     0  startup_stm32f40_41xxx.o(.text)
    OTG_FS_WKUP_IRQHandler                   0x0800431b   Thumb Code     0  startup_stm32f40_41xxx.o(.text)
    OTG_HS_EP1_IN_IRQHandler                 0x0800431b   Thumb Code     0  startup_stm32f40_41xxx.o(.text)
    OTG_HS_EP1_OUT_IRQHandler                0x0800431b   Thumb Code     0  startup_stm32f40_41xxx.o(.text)
    OTG_HS_IRQHandler                        0x0800431b   Thumb Code     0  startup_stm32f40_41xxx.o(.text)
    OTG_HS_WKUP_IRQHandler                   0x0800431b   Thumb Code     0  startup_stm32f40_41xxx.o(.text)
    PVD_IRQHandler                           0x0800431b   Thumb Code     0  startup_stm32f40_41xxx.o(.text)
    RCC_IRQHandler                           0x0800431b   Thumb Code     0  startup_stm32f40_41xxx.o(.text)
    RTC_Alarm_IRQHandler                     0x0800431b   Thumb Code     0  startup_stm32f40_41xxx.o(.text)
    RTC_WKUP_IRQHandler                      0x0800431b   Thumb Code     0  startup_stm32f40_41xxx.o(.text)
    SDIO_IRQHandler                          0x0800431b   Thumb Code     0  startup_stm32f40_41xxx.o(.text)
    SPI1_IRQHandler                          0x0800431b   Thumb Code     0  startup_stm32f40_41xxx.o(.text)
    SPI2_IRQHandler                          0x0800431b   Thumb Code     0  startup_stm32f40_41xxx.o(.text)
    SPI3_IRQHandler                          0x0800431b   Thumb Code     0  startup_stm32f40_41xxx.o(.text)
    TAMP_STAMP_IRQHandler                    0x0800431b   Thumb Code     0  startup_stm32f40_41xxx.o(.text)
    TIM1_BRK_TIM9_IRQHandler                 0x0800431b   Thumb Code     0  startup_stm32f40_41xxx.o(.text)
    TIM1_CC_IRQHandler                       0x0800431b   Thumb Code     0  startup_stm32f40_41xxx.o(.text)
    TIM1_TRG_COM_TIM11_IRQHandler            0x0800431b   Thumb Code     0  startup_stm32f40_41xxx.o(.text)
    TIM1_UP_TIM10_IRQHandler                 0x0800431b   Thumb Code     0  startup_stm32f40_41xxx.o(.text)
    TIM2_IRQHandler                          0x0800431b   Thumb Code     0  startup_stm32f40_41xxx.o(.text)
    TIM3_IRQHandler                          0x0800431b   Thumb Code     0  startup_stm32f40_41xxx.o(.text)
    TIM4_IRQHandler                          0x0800431b   Thumb Code     0  startup_stm32f40_41xxx.o(.text)
    TIM5_IRQHandler                          0x0800431b   Thumb Code     0  startup_stm32f40_41xxx.o(.text)
    TIM6_DAC_IRQHandler                      0x0800431b   Thumb Code     0  startup_stm32f40_41xxx.o(.text)
    TIM7_IRQHandler                          0x0800431b   Thumb Code     0  startup_stm32f40_41xxx.o(.text)
    TIM8_BRK_TIM12_IRQHandler                0x0800431b   Thumb Code     0  startup_stm32f40_41xxx.o(.text)
    TIM8_CC_IRQHandler                       0x0800431b   Thumb Code     0  startup_stm32f40_41xxx.o(.text)
    TIM8_TRG_COM_TIM14_IRQHandler            0x0800431b   Thumb Code     0  startup_stm32f40_41xxx.o(.text)
    TIM8_UP_TIM13_IRQHandler                 0x0800431b   Thumb Code     0  startup_stm32f40_41xxx.o(.text)
    UART4_IRQHandler                         0x0800431b   Thumb Code     0  startup_stm32f40_41xxx.o(.text)
    USART1_IRQHandler                        0x0800431b   Thumb Code     0  startup_stm32f40_41xxx.o(.text)
    USART6_IRQHandler                        0x0800431b   Thumb Code     0  startup_stm32f40_41xxx.o(.text)
    WWDG_IRQHandler                          0x0800431b   Thumb Code     0  startup_stm32f40_41xxx.o(.text)
    __user_initial_stackheap                 0x0800431d   Thumb Code     0  startup_stm32f40_41xxx.o(.text)
    SVC_Handler                              0x0800433d   Thumb Code   140  irq_cm4f.o(.text)
    PendSV_Handler                           0x080043c9   Thumb Code    16  irq_cm4f.o(.text)
    SysTick_Handler                          0x080043d9   Thumb Code    16  irq_cm4f.o(.text)
    __c89vsprintf                            0x080043f5   Thumb Code    32  c89vsprintf.o(.text)
    __aeabi_memcpy                           0x08004419   Thumb Code     0  rt_memcpy_v6.o(.text)
    __rt_memcpy                              0x08004419   Thumb Code   138  rt_memcpy_v6.o(.text)
    _memcpy_lastbytes                        0x0800447f   Thumb Code     0  rt_memcpy_v6.o(.text)
    __aeabi_memset4                          0x080044a3   Thumb Code    16  aeabi_memset4.o(.text)
    __aeabi_memset8                          0x080044a3   Thumb Code     0  aeabi_memset4.o(.text)
    __aeabi_memclr                           0x080044b3   Thumb Code     0  rt_memclr.o(.text)
    __rt_memclr                              0x080044b3   Thumb Code    68  rt_memclr.o(.text)
    _memset                                  0x080044b7   Thumb Code     0  rt_memclr.o(.text)
    __aeabi_memclr4                          0x080044f7   Thumb Code     0  rt_memclr_w.o(.text)
    __aeabi_memclr8                          0x080044f7   Thumb Code     0  rt_memclr_w.o(.text)
    __rt_memclr_w                            0x080044f7   Thumb Code    78  rt_memclr_w.o(.text)
    _memset_w                                0x080044fb   Thumb Code     0  rt_memclr_w.o(.text)
    __use_two_region_memory                  0x08004545   Thumb Code     2  heapauxi.o(.text)
    __rt_heap_escrow                         0x08004547   Thumb Code     2  heapauxi.o(.text)
    __rt_heap_expand                         0x08004549   Thumb Code     2  heapauxi.o(.text)
    __cpp_initialize__aeabi_                 0x0800454d   Thumb Code    26  init_aeabi.o(.text)
    _printf_pre_padding                      0x08004571   Thumb Code    44  _printf_pad.o(.text)
    _printf_post_padding                     0x0800459d   Thumb Code    34  _printf_pad.o(.text)
    _printf_truncate_signed                  0x080045bf   Thumb Code    18  _printf_truncate.o(.text)
    _printf_truncate_unsigned                0x080045d1   Thumb Code    18  _printf_truncate.o(.text)
    _printf_str                              0x080045e3   Thumb Code    82  _printf_str.o(.text)
    _printf_int_dec                          0x08004635   Thumb Code   104  _printf_dec.o(.text)
    _printf_charcount                        0x080046ad   Thumb Code    40  _printf_charcount.o(.text)
    _printf_char_common                      0x080046df   Thumb Code    32  _printf_char_common.o(.text)
    _sputc                                   0x08004705   Thumb Code    10  _sputc.o(.text)
    _printf_wctomb                           0x08004711   Thumb Code   182  _printf_wctomb.o(.text)
    _printf_longlong_dec                     0x080047cd   Thumb Code   108  _printf_longlong_dec.o(.text)
    _printf_longlong_oct                     0x08004849   Thumb Code    66  _printf_oct_int_ll.o(.text)
    _printf_int_oct                          0x0800488b   Thumb Code    24  _printf_oct_int_ll.o(.text)
    _printf_ll_oct                           0x080048a3   Thumb Code    12  _printf_oct_int_ll.o(.text)
    _printf_longlong_hex                     0x080048b9   Thumb Code    86  _printf_hex_int_ll_ptr.o(.text)
    _printf_int_hex                          0x0800490f   Thumb Code    28  _printf_hex_int_ll_ptr.o(.text)
    _printf_ll_hex                           0x0800492b   Thumb Code    12  _printf_hex_int_ll_ptr.o(.text)
    _printf_hex_ptr                          0x08004937   Thumb Code    18  _printf_hex_int_ll_ptr.o(.text)
    __printf                                 0x0800494d   Thumb Code   388  __printf_flags_ss_wp.o(.text)
    __rt_SIGPVFN                             0x08004ad5   Thumb Code    14  defsig_pvfn_outer.o(.text)
    __aeabi_memcpy4                          0x08004ae3   Thumb Code     0  rt_memcpy_w.o(.text)
    __aeabi_memcpy8                          0x08004ae3   Thumb Code     0  rt_memcpy_w.o(.text)
    __rt_memcpy_w                            0x08004ae3   Thumb Code   100  rt_memcpy_w.o(.text)
    _memcpy_lastbytes_aligned                0x08004b2b   Thumb Code     0  rt_memcpy_w.o(.text)
    _ll_udiv10                               0x08004b47   Thumb Code   138  lludiv10.o(.text)
    _printf_int_common                       0x08004bd1   Thumb Code   178  _printf_intcommon.o(.text)
    __lib_sel_fp_printf                      0x08004c83   Thumb Code     2  _printf_fp_dec.o(.text)
    _printf_fp_dec_real                      0x08004e31   Thumb Code   620  _printf_fp_dec.o(.text)
    _printf_cs_common                        0x0800509d   Thumb Code    20  _printf_char.o(.text)
    _printf_char                             0x080050b1   Thumb Code    16  _printf_char.o(.text)
    _printf_string                           0x080050c1   Thumb Code     8  _printf_char.o(.text)
    _printf_lcs_common                       0x080050c9   Thumb Code    20  _printf_wchar.o(.text)
    _printf_wchar                            0x080050dd   Thumb Code    16  _printf_wchar.o(.text)
    _printf_wstring                          0x080050ed   Thumb Code     8  _printf_wchar.o(.text)
    _wcrtomb                                 0x080050f5   Thumb Code    64  _wcrtomb.o(.text)
    __sig_exit                               0x08005135   Thumb Code    10  defsig_exit.o(.text)
    __rt_SIGPVFN_inner                       0x08005141   Thumb Code    14  defsig_pvfn_inner.o(.text)
    _sys_exit                                0x08005171   Thumb Code     8  sys_exit.o(.text)
    __user_setup_stackheap                   0x0800517d   Thumb Code    74  sys_stackheap_outer.o(.text)
    __rt_ctype_table                         0x080051c9   Thumb Code    16  rt_ctype_table.o(.text)
    __rt_locale                              0x080051d9   Thumb Code    10  rt_locale_twolibspace.o(.text)
    _printf_fp_infnan                        0x080051e5   Thumb Code   112  _printf_fp_infnan.o(.text)
    _btod_etento                             0x08005265   Thumb Code   216  bigflt0.o(.text)
    exit                                     0x08005341   Thumb Code    18  exit.o(.text)
    __default_signal_display                 0x08005353   Thumb Code    50  defsig_general.o(.text)
    _ttywrch                                 0x08005385   Thumb Code    14  sys_wrch.o(.text)
    __user_libspace                          0x08005395   Thumb Code     8  libspace.o(.text)
    __user_perproc_libspace                  0x08005395   Thumb Code     0  libspace.o(.text)
    __I$use$semihosting                      0x0800539d   Thumb Code     0  use_no_semi.o(.text)
    __use_no_semihosting_swi                 0x0800539d   Thumb Code     2  use_no_semi.o(.text)
    __semihosting_library_function           0x0800539f   Thumb Code     0  indicate_semi.o(.text)
    strcmp                                   0x080053a1   Thumb Code   128  strcmpv7m.o(.text)
    osDelay                                  0x08005421   Thumb Code    36  rtx_delay.o(.text.osDelay)
    osKernelGetState                         0x08005445   Thumb Code    58  rtx_kernel.o(.text.osKernelGetState)
    osKernelInitialize                       0x08005481   Thumb Code    68  rtx_kernel.o(.text.osKernelInitialize)
    osKernelStart                            0x080054c5   Thumb Code    68  rtx_kernel.o(.text.osKernelStart)
    osMessageQueueGet                        0x08005509   Thumb Code   180  rtx_msgqueue.o(.text.osMessageQueueGet)
    osMessageQueueNew                        0x080055bd   Thumb Code    66  rtx_msgqueue.o(.text.osMessageQueueNew)
    osMessageQueuePut                        0x08005601   Thumb Code   132  rtx_msgqueue.o(.text.osMessageQueuePut)
    osMutexAcquire                           0x08005685   Thumb Code    36  rtx_mutex.o(.text.osMutexAcquire)
    osMutexDelete                            0x080056a9   Thumb Code    36  rtx_mutex.o(.text.osMutexDelete)
    osMutexNew                               0x080056cd   Thumb Code    66  rtx_mutex.o(.text.osMutexNew)
    osMutexRelease                           0x08005711   Thumb Code    36  rtx_mutex.o(.text.osMutexRelease)
    osRtxMemoryAlloc                         0x08005735   Thumb Code   110  rtx_memory.o(.text.osRtxMemoryAlloc)
    osRtxMemoryFree                          0x080057a5   Thumb Code    88  rtx_memory.o(.text.osRtxMemoryFree)
    osRtxMemoryInit                          0x080057fd   Thumb Code    48  rtx_memory.o(.text.osRtxMemoryInit)
    osRtxMemoryPoolAlloc                     0x0800582d   Thumb Code    76  rtx_mempool.o(.text.osRtxMemoryPoolAlloc)
    osRtxMemoryPoolFree                      0x08005879   Thumb Code    90  rtx_mempool.o(.text.osRtxMemoryPoolFree)
    osRtxMemoryPoolInit                      0x080058d5   Thumb Code    80  rtx_mempool.o(.text.osRtxMemoryPoolInit)
    osRtxMessageQueuePostProcess             0x08005925   Thumb Code   446  rtx_msgqueue.o(.text.osRtxMessageQueuePostProcess)
    osRtxMutexOwnerRelease                   0x08005ae5   Thumb Code    76  rtx_mutex.o(.text.osRtxMutexOwnerRelease)
    osRtxPendSV_Handler                      0x08005b31   Thumb Code   168  rtx_system.o(.text.osRtxPendSV_Handler)
    osRtxPostProcess                         0x08005bd9   Thumb Code   120  rtx_system.o(.text.osRtxPostProcess)
    osRtxSysTimerAckIRQ                      0x08005c51   Thumb Code    12  rtx_system.o(.text.osRtxSysTimerAckIRQ)
    osRtxSysTimerEnable                      0x08005c5d   Thumb Code    14  rtx_system.o(.text.osRtxSysTimerEnable)
    osRtxSysTimerSetup                       0x08005c6d   Thumb Code    58  rtx_system.o(.text.osRtxSysTimerSetup)
    osRtxThreadDelayTick                     0x08005ca9   Thumb Code   136  rtx_thread.o(.text.osRtxThreadDelayTick)
    osRtxThreadDispatch                      0x08005d31   Thumb Code   344  rtx_thread.o(.text.osRtxThreadDispatch)
    osRtxThreadListGet                       0x08005e89   Thumb Code    26  rtx_thread.o(.text.osRtxThreadListGet)
    osRtxThreadListPut                       0x08005ea5   Thumb Code    56  rtx_thread.o(.text.osRtxThreadListPut)
    osRtxThreadListRemove                    0x08005edd   Thumb Code    26  rtx_thread.o(.text.osRtxThreadListRemove)
    osRtxThreadListSort                      0x08005ef9   Thumb Code    96  rtx_thread.o(.text.osRtxThreadListSort)
    osRtxThreadPostProcess                   0x08005f59   Thumb Code   140  rtx_thread.o(.text.osRtxThreadPostProcess)
    osRtxThreadReadyPut                      0x08005fe5   Thumb Code    72  rtx_thread.o(.text.osRtxThreadReadyPut)
    osRtxThreadRegPtr                        0x0800602d   Thumb Code    20  rtx_thread.o(.text.osRtxThreadRegPtr)
    osRtxThreadStackCheck                    0x08006041   Thumb Code    46  rtx_thread.o(.text.osRtxThreadStackCheck)
    osRtxThreadSwitch                        0x08006071   Thumb Code    18  rtx_thread.o(.text.osRtxThreadSwitch)
    osRtxThreadWaitEnter                     0x08006085   Thumb Code   226  rtx_thread.o(.text.osRtxThreadWaitEnter)
    osRtxThreadWaitExit                      0x08006169   Thumb Code   206  rtx_thread.o(.text.osRtxThreadWaitExit)
    osRtxTick_Handler                        0x08006239   Thumb Code   120  rtx_system.o(.text.osRtxTick_Handler)
    osRtxTimerTick                           0x080062b1   Thumb Code   170  rtx_timer.o(.text.osRtxTimerTick)
    osThreadExit                             0x0800635d   Thumb Code    14  rtx_thread.o(.text.osThreadExit)
    osThreadNew                              0x0800636d   Thumb Code    66  rtx_thread.o(.text.osThreadNew)
    osThreadTerminate                        0x080063b1   Thumb Code    36  rtx_thread.o(.text.osThreadTerminate)
    svcRtxDelay                              0x080063d5   Thumb Code    20  rtx_delay.o(.text.svcRtxDelay)
    svcRtxKernelGetState                     0x080063e9   Thumb Code    12  rtx_kernel.o(.text.svcRtxKernelGetState)
    svcRtxKernelInitialize                   0x080063f5   Thumb Code   428  rtx_kernel.o(.text.svcRtxKernelInitialize)
    svcRtxKernelStart                        0x080065a1   Thumb Code   150  rtx_kernel.o(.text.svcRtxKernelStart)
    svcRtxMessageQueueGet                    0x08006639   Thumb Code   410  rtx_msgqueue.o(.text.svcRtxMessageQueueGet)
    svcRtxMessageQueueNew                    0x080067d5   Thumb Code   352  rtx_msgqueue.o(.text.svcRtxMessageQueueNew)
    svcRtxMessageQueuePut                    0x08006935   Thumb Code   280  rtx_msgqueue.o(.text.svcRtxMessageQueuePut)
    svcRtxMutexAcquire                       0x08006a4d   Thumb Code   158  rtx_mutex.o(.text.svcRtxMutexAcquire)
    svcRtxMutexDelete                        0x08006aed   Thumb Code   214  rtx_mutex.o(.text.svcRtxMutexDelete)
    svcRtxMutexNew                           0x08006bc5   Thumb Code   114  rtx_mutex.o(.text.svcRtxMutexNew)
    svcRtxMutexRelease                       0x08006c39   Thumb Code   200  rtx_mutex.o(.text.svcRtxMutexRelease)
    svcRtxThreadExit                         0x08006d01   Thumb Code   186  rtx_thread.o(.text.svcRtxThreadExit)
    svcRtxThreadNew                          0x08006dbd   Thumb Code   576  rtx_thread.o(.text.svcRtxThreadNew)
    svcRtxThreadTerminate                    0x08006ffd   Thumb Code   500  rtx_thread.o(.text.svcRtxThreadTerminate)
    _btod_d2e                                0x080071f1   Thumb Code    62  btod.o(CL$$btod_d2e)
    _d2e_denorm_low                          0x0800722f   Thumb Code    70  btod.o(CL$$btod_d2e_denorm_low)
    _d2e_norm_op1                            0x08007275   Thumb Code    96  btod.o(CL$$btod_d2e_norm_op1)
    __btod_div_common                        0x080072d5   Thumb Code   696  btod.o(CL$$btod_div_common)
    _e2e                                     0x0800760d   Thumb Code   198  btod.o(CL$$btod_e2e)
    _btod_ediv                               0x080076d3   Thumb Code    40  btod.o(CL$$btod_ediv)
    _btod_emul                               0x080076fb   Thumb Code    40  btod.o(CL$$btod_emul)
    __btod_mult_common                       0x08007723   Thumb Code   580  btod.o(CL$$btod_mult_common)
    SystemInit                               0x08007a1d   Thumb Code    72  system_stm32f4xx.o(i.SystemInit)
    UART5_IRQHandler                         0x08007a79   Thumb Code   142  loguart.o(i.UART5_IRQHandler)
    USART2_IRQHandler                        0x08007b21   Thumb Code   144  bluetooth.o(i.USART2_IRQHandler)
    USART3_IRQHandler                        0x08007bc9   Thumb Code   140  mainuart.o(i.USART3_IRQHandler)
    vDrv8704Init()                           0x08007c71   Thumb Code    76  motordriver.o(i._Z12vDrv8704Initv)
    copy(void*, const void*, unsigned)       0x08007cc5   Thumb Code    18  otamanager.o(i._Z4copyPvPKvj)
    BaseOutput::buildAndWrite()              0x08007e21   Thumb Code    36  statusupdatetask.o(i._ZN10BaseOutput13buildAndWriteEv)
    BaseOutput::build(unsigned char*)        0x08007e45   Thumb Code    66  baseoutput.o(i._ZN10BaseOutput5buildEPh)
    BaseOutput::format(const char*, ...)     0x08007e87   Thumb Code    34  baseoutput.o(i._ZN10BaseOutput6formatEPKcz)
    BaseOutput::append1(unsigned char)       0x08007ea9   Thumb Code    14  statusupdatetask.o(i._ZN10BaseOutput7append1Eh)
    BaseOutput::append2(unsigned short)      0x08007eb7   Thumb Code    36  statusupdatetask.o(i._ZN10BaseOutput7append2Et)
    BaseOutput::setAction(unsigned char)     0x08007edb   Thumb Code     8  statusupdatetask.o(i._ZN10BaseOutput9setActionEh)
    Compressor::instance()                   0x08007ee5   Thumb Code    34  delivertask.o(i._ZN10Compressor8instanceEv)
    Compressor::isChecked()                  0x08007f11   Thumb Code    44  delivertask.o(i._ZN10Compressor9isCheckedEv)
    Compressor::Compressor()                 0x08007f45   Thumb Code    72  compressor.o(i._ZN10CompressorC1Ev)
    Compressor::Compressor__sub_object()     0x08007f45   Thumb Code     0  compressor.o(i._ZN10CompressorC1Ev)
    OTAManager::setOTAMessage(unsigned)      0x08007f95   Thumb Code   220  otamanager.o(i._ZN10OTAManager13setOTAMessageEj)
    OTAManager::init(unsigned)               0x08008071   Thumb Code   132  mainevent.o(i._ZN10OTAManager4initEj)
    OTAManager::xWrite(unsigned short, const unsigned char*, unsigned) 0x080080fd   Thumb Code   248  otamanager.o(i._ZN10OTAManager6xWriteEtPKhj)
    OTAManager::instance()                   0x080081fd   Thumb Code    34  mainevent.o(i._ZN10OTAManager8instanceEv)
    OTAManager::OTAManager()                 0x08008229   Thumb Code     2  otamanager.o(i._ZN10OTAManagerC1Ev)
    OTAManager::OTAManager__sub_object()     0x08008229   Thumb Code     0  otamanager.o(i._ZN10OTAManagerC1Ev)
    PIDControl::init(int, float, float, float) 0x0800822b   Thumb Code    20  pidcontrol.o(i._ZN10PIDControl4initEifff)
    PIDControl::nextValue(int)               0x0800823f   Thumb Code    82  pidcontrol.o(i._ZN10PIDControl9nextValueEi)
    DeliverTask::testFridge(Event&)          0x08008291   Thumb Code    70  delivertask.o(i._ZN11DeliverTask10testFridgeER5Event)
    DeliverTask::robotArmTest(Event&)        0x080082d7   Thumb Code   138  delivertask.o(i._ZN11DeliverTask12robotArmTestER5Event)
    DeliverTask::setGoodsType(Event&)        0x08008361   Thumb Code   130  delivertask.o(i._ZN11DeliverTask12setGoodsTypeER5Event)
    DeliverTask::testRobotArm(Event&)        0x080083e3   Thumb Code    78  delivertask.o(i._ZN11DeliverTask12testRobotArmER5Event)
    DeliverTask::readGoodsType(Event&)       0x08008431   Thumb Code   102  delivertask.o(i._ZN11DeliverTask13readGoodsTypeER5Event)
    DeliverTask::robotArmCheck(Event&)       0x08008499   Thumb Code   130  delivertask.o(i._ZN11DeliverTask13robotArmCheckER5Event)
    DeliverTask::testPickMotor(Event&)       0x08008521   Thumb Code    84  delivertask.o(i._ZN11DeliverTask13testPickMotorER5Event)
    DeliverTask::testCompressor(Event&)      0x08008575   Thumb Code    50  delivertask.o(i._ZN11DeliverTask14testCompressorER5Event)
    DeliverTask::settingGoodsType(Event&)    0x080085ad   Thumb Code   114  delivertask.o(i._ZN11DeliverTask16settingGoodsTypeER5Event)
    DeliverTask::run()                       0x08008621   Thumb Code   198  delivertask.o(i._ZN11DeliverTask3runEv)
    DeliverTask::init(Event&)                0x080086f1   Thumb Code    74  delivertask.o(i._ZN11DeliverTask4initER5Event)
    DeliverTask::deliver(Event&)             0x0800873b   Thumb Code   302  delivertask.o(i._ZN11DeliverTask7deliverER5Event)
    DeliverTask::deliver(unsigned char, unsigned char, unsigned short, Event&) 0x08008869   Thumb Code   544  delivertask.o(i._ZN11DeliverTask7deliverEhhtR5Event)
    DeliverTask::instance()                  0x08008a8d   Thumb Code    34  mainevent.o(i._ZN11DeliverTask8instanceEv)
    DeliverTask::DeliverTask()               0x08008ab9   Thumb Code    46  delivertask.o(i._ZN11DeliverTaskC1Ev)
    DeliverTask::DeliverTask__sub_object()   0x08008ab9   Thumb Code     0  delivertask.o(i._ZN11DeliverTaskC1Ev)
    FlashMemory::vWriteData(unsigned, const unsigned char*, unsigned) 0x08008af5   Thumb Code   110  flashmemory.o(i._ZN11FlashMemory10vWriteDataEjPKhj)
    FlashMemory::vPageProgram(unsigned, const unsigned char*, unsigned) 0x08008b65   Thumb Code    96  flashmemory.o(i._ZN11FlashMemory12vPageProgramEjPKhj)
    FlashMemory::vSectorEarse(unsigned)      0x08008bc9   Thumb Code    78  flashmemory.o(i._ZN11FlashMemory12vSectorEarseEj)
    FlashMemory::vWriteEnable()              0x08008c1d   Thumb Code    22  flashmemory.o(i._ZN11FlashMemory12vWriteEnableEv)
    FlashMemory::xQueryStatus()              0x08008c39   Thumb Code    32  flashmemory.o(i._ZN11FlashMemory12xQueryStatusEv)
    FlashMemory::xTranslateByte(unsigned char) 0x08008c5d   Thumb Code    26  flashmemory.o(i._ZN11FlashMemory14xTranslateByteEh)
    FlashMemory::initSpiInterface()          0x08008c7d   Thumb Code   132  flashmemory.o(i._ZN11FlashMemory16initSpiInterfaceEv)
    FlashMemory::save()                      0x08008d15   Thumb Code    28  delivertask.o(i._ZN11FlashMemory4saveEv)
    FlashMemory::instance()                  0x08008d31   Thumb Code    34  bluetoothevent.o(i._ZN11FlashMemory8instanceEv)
    FlashMemory::vReadData(unsigned, unsigned char*, unsigned) 0x08008d5d   Thumb Code    76  flashmemory.o(i._ZN11FlashMemory9vReadDataEjPhj)
    FlashMemory::FlashMemory()               0x08008dad   Thumb Code    26  flashmemory.o(i._ZN11FlashMemoryC1Ev)
    FlashMemory::FlashMemory__sub_object()   0x08008dad   Thumb Code     0  flashmemory.o(i._ZN11FlashMemoryC1Ev)
    MotorDriver::enable()                    0x08008dc9   Thumb Code    50  motordriver.o(i._ZN11MotorDriver6enableEv)
    MotorDriver::disable()                   0x08008e01   Thumb Code     8  motordriver.o(i._ZN11MotorDriver7disableEv)
    MotorDriver::instance()                  0x08008e0d   Thumb Code    34  delivertask.o(i._ZN11MotorDriver8instanceEv)
    MotorDriver::MotorDriver()               0x08008e39   Thumb Code    18  motordriver.o(i._ZN11MotorDriverC1Ev)
    MotorDriver::MotorDriver__sub_object()   0x08008e39   Thumb Code     0  motordriver.o(i._ZN11MotorDriverC1Ev)
    BaseProtocol::write()                    0x08008e51   Thumb Code    22  logevent.o(i._ZN12BaseProtocol5writeEv)
    BaseProtocol::BaseProtocol(unsigned char*, const Event&, unsigned char) 0x08008e67   Thumb Code   118  baseprotocol.o(i._ZN12BaseProtocolC1EPhRK5Eventh)
    BaseProtocol::BaseProtocol__sub_object(unsigned char*, const Event&, unsigned char) 0x08008e67   Thumb Code     0  baseprotocol.o(i._ZN12BaseProtocolC1EPhRK5Eventh)
    BluetoothEvent::onStatusChange(unsigned char, unsigned char, unsigned char) 0x08008edd   Thumb Code    76  bluetoothevent.o(i._ZN14BluetoothEvent14onStatusChangeEhhh)
    BluetoothEvent::dispose()                0x08008f29   Thumb Code    90  bluetoothevent.o(i._ZN14BluetoothEvent7disposeEv)
    BluetoothEvent::onResult(const unsigned char*, unsigned short) 0x08008f8d   Thumb Code    24  bluetoothevent.o(i._ZN14BluetoothEvent8onResultEPKht)
    BluetoothEvent::onReturn(unsigned char)  0x08008fa5   Thumb Code     2  bluetoothevent.o(i._ZN14BluetoothEvent8onReturnEh)
    PositionSwitch::instance()               0x08008fa9   Thumb Code    34  fridge.o(i._ZN14PositionSwitch8instanceEv)
    PositionSwitch::xGetValue()              0x08008fd5   Thumb Code    74  positionswitch.o(i._ZN14PositionSwitch9xGetValueEv)
    PositionSwitch::PositionSwitch()         0x08009025   Thumb Code    80  positionswitch.o(i._ZN14PositionSwitchC1Ev)
    PositionSwitch::PositionSwitch__sub_object() 0x08009025   Thumb Code     0  positionswitch.o(i._ZN14PositionSwitchC1Ev)
    StatusUpdateTask::run()                  0x0800908d   Thumb Code   460  statusupdatetask.o(i._ZN16StatusUpdateTask3runEv)
    StatusUpdateTask::StatusUpdateTask()     0x0800927d   Thumb Code    26  statusupdatetask.o(i._ZN16StatusUpdateTaskC1Ev)
    StatusUpdateTask::StatusUpdateTask__sub_object() 0x0800927d   Thumb Code     0  statusupdatetask.o(i._ZN16StatusUpdateTaskC1Ev)
    MessageDispenseTask::run()               0x080092a5   Thumb Code   186  messagedispensetask.o(i._ZN19MessageDispenseTask3runEv)
    MessageDispenseTask::MessageDispenseTask() 0x08009385   Thumb Code    26  messagedispensetask.o(i._ZN19MessageDispenseTaskC1Ev)
    MessageDispenseTask::MessageDispenseTask__sub_object() 0x08009385   Thumb Code     0  messagedispensetask.o(i._ZN19MessageDispenseTaskC1Ev)
    Led::blink()                             0x080093ad   Thumb Code    62  led.o(i._ZN3Led5blinkEv)
    Led::Led()                               0x080093f1   Thumb Code    60  led.o(i._ZN3LedC1Ev)
    Led::Led__sub_object()                   0x080093f1   Thumb Code     0  led.o(i._ZN3LedC1Ev)
    Task::startThreadFun(void*)              0x08009435   Thumb Code    18  task.o(i._ZN4Task14startThreadFunEPv)
    Task::stop()                             0x08009447   Thumb Code    16  task.o(i._ZN4Task4stopEv)
    Task::start()                            0x08009459   Thumb Code    30  task.o(i._ZN4Task5startEv)
    Task::Task__sub_object(const char*, unsigned long long*, unsigned, osPriority_t) 0x0800947d   Thumb Code    38  task.o(i._ZN4TaskC2EPKcPyj12osPriority_t)
    ELock::vInit()                           0x080094a9   Thumb Code    72  elock.o(i._ZN5ELock5vInitEv)
    Event::onStatusChange(unsigned char, unsigned char, unsigned char) 0x080094f9   Thumb Code     2  event.o(i._ZN5Event14onStatusChangeEhhh)
    Event::onResult(const unsigned char*, unsigned short) 0x080094fb   Thumb Code     2  event.o(i._ZN5Event8onResultEPKht)
    Event::onReturn(unsigned char)           0x080094fd   Thumb Code     2  event.o(i._ZN5Event8onReturnEh)
    Event::Event()                           0x08009501   Thumb Code    12  messagedispensetask.o(i._ZN5EventC1Ev)
    Event::Event__sub_object()               0x08009501   Thumb Code     0  messagedispensetask.o(i._ZN5EventC1Ev)
    Fridge::initMotoGpio()                   0x08009511   Thumb Code   112  fridge.o(i._ZN6Fridge12initMotoGpioEv)
    Fridge::initMotoDriver()                 0x0800958d   Thumb Code    48  fridge.o(i._ZN6Fridge14initMotoDriverEv)
    Fridge::initCounterGpio()                0x080095c5   Thumb Code    90  fridge.o(i._ZN6Fridge15initCounterGpioEv)
    Fridge::initCounterDriver()              0x08009629   Thumb Code    52  fridge.o(i._ZN6Fridge17initCounterDriverEv)
    Fridge::xOpen(unsigned short, unsigned)  0x08009665   Thumb Code   150  fridge.o(i._ZN6Fridge5xOpenEtj)
    Fridge::isOpen()                         0x08009719   Thumb Code    18  fridge.o(i._ZN6Fridge6isOpenEv)
    Fridge::xClose(unsigned short, unsigned) 0x0800972d   Thumb Code   150  fridge.o(i._ZN6Fridge6xCloseEtj)
    Fridge::isClose()                        0x080097e1   Thumb Code    18  fridge.o(i._ZN6Fridge7isCloseEv)
    Fridge::vSetDir(Fridge::Dir)             0x080097f5   Thumb Code    38  fridge.o(i._ZN6Fridge7vSetDirENS_3DirE)
    Fridge::instance()                       0x08009821   Thumb Code    34  delivertask.o(i._ZN6Fridge8instanceEv)
    Fridge::Fridge()                         0x0800984d   Thumb Code    44  fridge.o(i._ZN6FridgeC1Ev)
    Fridge::Fridge__sub_object()             0x0800984d   Thumb Code     0  fridge.o(i._ZN6FridgeC1Ev)
    Sender::Sender(const char*)              0x08009881   Thumb Code    32  sender.o(i._ZN6SenderC1EPKc)
    Sender::Sender__sub_object(const char*)  0x08009881   Thumb Code     0  sender.o(i._ZN6SenderC1EPKc)
    Ds18b20::vWriteByte(unsigned char)       0x080098a1   Thumb Code    56  ds18b20.o(i._ZN7Ds18b2010vWriteByteEh)
    Ds18b20::xCheckDevice()                  0x080098dd   Thumb Code    72  ds18b20.o(i._ZN7Ds18b2012xCheckDeviceEv)
    Ds18b20::vReset()                        0x08009929   Thumb Code    28  ds18b20.o(i._ZN7Ds18b206vResetEv)
    Ds18b20::vStart()                        0x08009949   Thumb Code    34  ds18b20.o(i._ZN7Ds18b206vStartEv)
    Ds18b20::xReadBit()                      0x0800996d   Thumb Code    44  ds18b20.o(i._ZN7Ds18b208xReadBitEv)
    Ds18b20::xGetValue()                     0x0800999d   Thumb Code    64  ds18b20.o(i._ZN7Ds18b209xGetValueEv)
    Ds18b20::xReadByte()                     0x080099dd   Thumb Code    32  ds18b20.o(i._ZN7Ds18b209xReadByteEv)
    Ds18b20::Ds18b20()                       0x080099fd   Thumb Code    66  ds18b20.o(i._ZN7Ds18b20C1Ev)
    Ds18b20::Ds18b20__sub_object()           0x080099fd   Thumb Code     0  ds18b20.o(i._ZN7Ds18b20C1Ev)
    LogUart::write(const unsigned char*, unsigned short) 0x08009a49   Thumb Code    46  loguart.o(i._ZN7LogUart5writeEPKht)
    LogUart::write(unsigned char)            0x08009a79   Thumb Code    12  loguart.o(i._ZN7LogUart5writeEh)
    LogUart::instance()                      0x08009a89   Thumb Code    34  logevent.o(i._ZN7LogUart8instanceEv)
    LogUart::LogUart()                       0x08009ab5   Thumb Code   290  loguart.o(i._ZN7LogUartC1Ev)
    LogUart::LogUart__sub_object()           0x08009ab5   Thumb Code     0  loguart.o(i._ZN7LogUartC1Ev)
    BootTask::run()                          0x08009c01   Thumb Code   486  boottask.o(i._ZN8BootTask3runEv)
    BootTask::BootTask()                     0x08009e69   Thumb Code    26  boottask.o(i._ZN8BootTaskC1Ev)
    BootTask::BootTask__sub_object()         0x08009e69   Thumb Code     0  boottask.o(i._ZN8BootTaskC1Ev)
    LogEvent::onStatusChange(unsigned char, unsigned char, unsigned char) 0x08009e91   Thumb Code    76  logevent.o(i._ZN8LogEvent14onStatusChangeEhhh)
    LogEvent::onCheckRobotArm()              0x08009edd   Thumb Code   166  logevent.o(i._ZN8LogEvent15onCheckRobotArmEv)
    LogEvent::dispose()                      0x08009f99   Thumb Code   112  logevent.o(i._ZN8LogEvent7disposeEv)
    LogEvent::onReturn(unsigned char)        0x0800a011   Thumb Code    34  logevent.o(i._ZN8LogEvent8onReturnEh)
    MainUart::write(const unsigned char*, unsigned short) 0x0800a033   Thumb Code    46  mainuart.o(i._ZN8MainUart5writeEPKht)
    MainUart::write(unsigned char)           0x0800a061   Thumb Code    16  mainuart.o(i._ZN8MainUart5writeEh)
    MainUart::instance()                     0x0800a075   Thumb Code    34  mainevent.o(i._ZN8MainUart8instanceEv)
    MainUart::MainUart()                     0x0800a0a1   Thumb Code   218  mainuart.o(i._ZN8MainUartC1Ev)
    MainUart::MainUart__sub_object()         0x0800a0a1   Thumb Code     0  mainuart.o(i._ZN8MainUartC1Ev)
    Protocol::build(unsigned char*)          0x0800a1a5   Thumb Code    68  protocol.o(i._ZN8Protocol5buildEPh)
    Protocol::append1(unsigned char)         0x0800a1e9   Thumb Code    14  bluetoothevent.o(i._ZN8Protocol7append1Eh)
    Protocol::append2(unsigned short)        0x0800a1f7   Thumb Code    36  mainevent.o(i._ZN8Protocol7append2Et)
    Protocol::Protocol(unsigned char*)       0x0800a21b   Thumb Code     8  mainevent.o(i._ZN8ProtocolC1EPh)
    Protocol::Protocol__sub_object(unsigned char*) 0x0800a21b   Thumb Code     0  mainevent.o(i._ZN8ProtocolC1EPh)
    Receiver::put(const Event*)              0x0800a223   Thumb Code    10  mainevent.o(i._ZN8Receiver3putEPK5Event)
    Receiver::recv(Event*, unsigned)         0x0800a22d   Thumb Code    10  messagedispensetask.o(i._ZN8Receiver4recvEP5Eventj)
    Receiver::Receiver(const char*, unsigned long long*, unsigned, unsigned) 0x0800a237   Thumb Code    54  receiver.o(i._ZN8ReceiverC1EPKcPyjj)
    Receiver::Receiver__sub_object(const char*, unsigned long long*, unsigned, unsigned) 0x0800a237   Thumb Code     0  receiver.o(i._ZN8ReceiverC1EPKcPyjj)
    SysTimer::vInit()                        0x0800a26d   Thumb Code    48  systimer.o(i._ZN8SysTimer5vInitEv)
    SysTimer::vDelayUs(unsigned short)       0x0800a2a5   Thumb Code    14  systimer.o(i._ZN8SysTimer8vDelayUsEt)
    Bluetooth::initDriver()                  0x0800a2b9   Thumb Code   212  bluetooth.o(i._ZN9Bluetooth10initDriverEv)
    Bluetooth::write(const unsigned char*, unsigned short) 0x0800a3a9   Thumb Code    46  bluetooth.o(i._ZN9Bluetooth5writeEPKht)
    Bluetooth::write(unsigned char)          0x0800a3d9   Thumb Code    16  bluetooth.o(i._ZN9Bluetooth5writeEh)
    Bluetooth::instance()                    0x0800a3ed   Thumb Code    34  bluetoothevent.o(i._ZN9Bluetooth8instanceEv)
    Bluetooth::Bluetooth()                   0x0800a419   Thumb Code    54  bluetooth.o(i._ZN9BluetoothC1Ev)
    Bluetooth::Bluetooth__sub_object()       0x0800a419   Thumb Code     0  bluetooth.o(i._ZN9BluetoothC1Ev)
    MainEvent::onOTANotify()                 0x0800a461   Thumb Code    84  mainevent.o(i._ZN9MainEvent11onOTANotifyEv)
    MainEvent::write(unsigned char, unsigned char) 0x0800a4b5   Thumb Code    54  mainevent.o(i._ZN9MainEvent5writeEhh)
    MainEvent::dispose()                     0x0800a4eb   Thumb Code   102  mainevent.o(i._ZN9MainEvent7disposeEv)
    MainEvent::onResult(const unsigned char*, unsigned short) 0x0800a551   Thumb Code    24  mainevent.o(i._ZN9MainEvent8onResultEPKht)
    MainEvent::onPackage()                   0x0800a569   Thumb Code   110  mainevent.o(i._ZN9MainEvent9onPackageEv)
    PickMotor::initMotoGpio()                0x0800a5d9   Thumb Code   132  pickmotor.o(i._ZN9PickMotor12initMotoGpioEv)
    PickMotor::initMotoDriver()              0x0800a669   Thumb Code    64  pickmotor.o(i._ZN9PickMotor14initMotoDriverEv)
    PickMotor::initCounterGpio()             0x0800a6b1   Thumb Code    78  pickmotor.o(i._ZN9PickMotor15initCounterGpioEv)
    PickMotor::initCounterDriver()           0x0800a709   Thumb Code    40  pickmotor.o(i._ZN9PickMotor17initCounterDriverEv)
    PickMotor::xGoDownOfAbsolute(unsigned short, unsigned, unsigned) 0x0800a739   Thumb Code    46  pickmotor.o(i._ZN9PickMotor17xGoDownOfAbsoluteEtjj)
    PickMotor::xGoDownAndCheckCompressor(unsigned short, unsigned, unsigned) 0x0800a769   Thumb Code   132  pickmotor.o(i._ZN9PickMotor25xGoDownAndCheckCompressorEtjj)
    PickMotor::isTop()                       0x0800a7f5   Thumb Code    18  pickmotor.o(i._ZN9PickMotor5isTopEv)
    PickMotor::xGoUp(unsigned short, unsigned, unsigned) 0x0800a809   Thumb Code   292  pickmotor.o(i._ZN9PickMotor5xGoUpEtjj)
    PickMotor::vSetDir(PickMotor::Dir)       0x0800a965   Thumb Code    48  pickmotor.o(i._ZN9PickMotor7vSetDirENS_3DirE)
    PickMotor::xGoDown(unsigned short, unsigned, unsigned) 0x0800a999   Thumb Code   134  pickmotor.o(i._ZN9PickMotor7xGoDownEtjj)
    PickMotor::instance()                    0x0800aa41   Thumb Code    34  delivertask.o(i._ZN9PickMotor8instanceEv)
    PickMotor::isChecked()                   0x0800aa6d   Thumb Code    46  pickmotor.o(i._ZN9PickMotor9isCheckedEv)
    PickMotor::PickMotor()                   0x0800aaa5   Thumb Code    58  pickmotor.o(i._ZN9PickMotorC1Ev)
    PickMotor::PickMotor__sub_object()       0x0800aaa5   Thumb Code     0  pickmotor.o(i._ZN9PickMotorC1Ev)
    RobotArm1::xRotationTo(unsigned short, unsigned, unsigned short) 0x0800aaed   Thumb Code   214  robotarm1.o(i._ZN9RobotArm111xRotationToEtjt)
    RobotArm1::initMotoGpio()                0x0800abd5   Thumb Code   186  robotarm1.o(i._ZN9RobotArm112initMotoGpioEv)
    RobotArm1::initMotoDriver()              0x0800ac9d   Thumb Code    82  robotarm1.o(i._ZN9RobotArm114initMotoDriverEv)
    RobotArm1::initCounterGpio()             0x0800acf9   Thumb Code    78  robotarm1.o(i._ZN9RobotArm115initCounterGpioEv)
    RobotArm1::initCounterDriver()           0x0800ad51   Thumb Code    50  robotarm1.o(i._ZN9RobotArm117initCounterDriverEv)
    RobotArm1::xGetAbsolutePosition()        0x0800ad89   Thumb Code    34  robotarm1.o(i._ZN9RobotArm120xGetAbsolutePositionEv)
    RobotArm1::vSetDir(RobotArm1::Dir)       0x0800adad   Thumb Code    36  robotarm1.o(i._ZN9RobotArm17vSetDirENS_3DirE)
    RobotArm1::instance()                    0x0800add5   Thumb Code    34  delivertask.o(i._ZN9RobotArm18instanceEv)
    RobotArm1::RobotArm1()                   0x0800ae01   Thumb Code    78  robotarm1.o(i._ZN9RobotArm1C1Ev)
    RobotArm1::RobotArm1__sub_object()       0x0800ae01   Thumb Code     0  robotarm1.o(i._ZN9RobotArm1C1Ev)
    RobotArm2::xRotationTo(unsigned short, unsigned, unsigned short) 0x0800ae65   Thumb Code   214  robotarm2.o(i._ZN9RobotArm211xRotationToEtjt)
    RobotArm2::initMotoGpio()                0x0800af4d   Thumb Code    54  robotarm2.o(i._ZN9RobotArm212initMotoGpioEv)
    RobotArm2::vInversedBrake()              0x0800af8d   Thumb Code    52  robotarm2.o(i._ZN9RobotArm214vInversedBrakeEv)
    RobotArm2::initCounterGpio()             0x0800afc5   Thumb Code    78  robotarm2.o(i._ZN9RobotArm215initCounterGpioEv)
    RobotArm2::initCounterDriver()           0x0800b01d   Thumb Code    74  robotarm2.o(i._ZN9RobotArm217initCounterDriverEv)
    RobotArm2::xGetAbsolutePosition()        0x0800b071   Thumb Code    32  robotarm2.o(i._ZN9RobotArm220xGetAbsolutePositionEv)
    RobotArm2::vSetDir(RobotArm2::Dir)       0x0800b095   Thumb Code    36  robotarm2.o(i._ZN9RobotArm27vSetDirENS_3DirE)
    RobotArm2::instance()                    0x0800b0bd   Thumb Code    34  delivertask.o(i._ZN9RobotArm28instanceEv)
    RobotArm2::RobotArm2()                   0x0800b0e9   Thumb Code    72  robotarm2.o(i._ZN9RobotArm2C1Ev)
    RobotArm2::RobotArm2__sub_object()       0x0800b0e9   Thumb Code     0  robotarm2.o(i._ZN9RobotArm2C1Ev)
    Event::isCorrectOfResult() const         0x0800b145   Thumb Code    66  event.o(i._ZNK5Event17isCorrectOfResultEv)
    Event::arg2(unsigned char) const         0x0800b187   Thumb Code    16  delivertask.o(i._ZNK5Event4arg2Eh)
    Event::check() const                     0x0800b197   Thumb Code    28  event.o(i._ZNK5Event5checkEv)
    Event::isCorrect() const                 0x0800b1b3   Thumb Code    58  event.o(i._ZNK5Event9isCorrectEv)
    __ARM_fpclassify                         0x0800b1ed   Thumb Code    48  fpclassify.o(i.__ARM_fpclassify)
    __cxa_guard_acquire                      0x0800b21d   Thumb Code    16  cxa_guard_acquire.o(i.__cxa_guard_acquire)
    __cxa_pure_virtual                       0x0800b22d   Thumb Code     6  pure_virt.o(i.__cxa_pure_virtual)
    _is_digit                                0x0800b27d   Thumb Code    14  __printf_wp.o(i._is_digit)
    _mutex_acquire                           0x0800b28b   Thumb Code    28  rtx_lib.o(i._mutex_acquire)
    _mutex_free                              0x0800b2a7   Thumb Code     6  rtx_lib.o(i._mutex_free)
    _mutex_initialize                        0x0800b2ad   Thumb Code    30  rtx_lib.o(i._mutex_initialize)
    _mutex_release                           0x0800b2cb   Thumb Code    24  rtx_lib.o(i._mutex_release)
    _platform_post_stackheap_init            0x0800b2e3   Thumb Code     4  rtx_lib.o(i._platform_post_stackheap_init)
    main                                     0x0800b2e9   Thumb Code    48  main.o(i.main)
    osRtxErrorNotify                         0x0800b321   Thumb Code     2  rtx_config.o(i.osRtxErrorNotify)
    osRtxIdleThread                          0x0800b323   Thumb Code     2  rtx_config.o(i.osRtxIdleThread)
    _get_lc_numeric                          0x0800b345   Thumb Code    44  lc_numeric_c.o(locale$$code)
    _get_lc_ctype                            0x0800b371   Thumb Code    44  lc_ctype_c.o(locale$$code)
    _fp_init                                 0x0800b39d   Thumb Code    10  fpinit.o(x$fpl$fpinit)
    __fplib_config_fpu_vfp                   0x0800b3a5   Thumb Code     0  fpinit.o(x$fpl$fpinit)
    __fplib_config_pureend_doubles           0x0800b3a5   Thumb Code     0  fpinit.o(x$fpl$fpinit)
    _printf_fp_dec                           0x0800b3a7   Thumb Code     4  printf1.o(x$fpl$printf1)
    __I$use$fp                               0x0800b3aa   Number         0  usenofp.o(x$fpl$usenofp)
    osRtxUserSVC                             0x0800b40c   Data           4  rtx_lib.o(.constdata)
    vtable for DeliverTask                   0x0800b4e8   Data          12  delivertask.o(.constdata__ZTV11DeliverTask)
    vtable for BluetoothEvent                0x0800b4f4   Data          20  bluetoothevent.o(.constdata__ZTV14BluetoothEvent)
    vtable for StatusUpdateTask              0x0800b508   Data          12  statusupdatetask.o(.constdata__ZTV16StatusUpdateTask)
    vtable for MessageDispenseTask           0x0800b514   Data          12  messagedispensetask.o(.constdata__ZTV19MessageDispenseTask)
    vtable for Task                          0x0800b520   Data          12  task.o(.constdata__ZTV4Task)
    vtable for Event                         0x0800b52c   Data          20  event.o(.constdata__ZTV5Event)
    vtable for LogUart                       0x0800b540   Data          12  loguart.o(.constdata__ZTV7LogUart)
    vtable for BootTask                      0x0800b54c   Data          12  boottask.o(.constdata__ZTV8BootTask)
    vtable for LogEvent                      0x0800b558   Data          20  logevent.o(.constdata__ZTV8LogEvent)
    vtable for MainUart                      0x0800b56c   Data          12  mainuart.o(.constdata__ZTV8MainUart)
    vtable for Bluetooth                     0x0800b578   Data          12  bluetooth.o(.constdata__ZTV9Bluetooth)
    vtable for MainEvent                     0x0800b584   Data          20  mainevent.o(.constdata__ZTV9MainEvent)
    osRtxConfig                              0x0800b598   Data         104  rtx_lib.o(.rodata)
    Region$$Table$$Base                      0x0800b60c   Number         0  anon$$obj.o(Region$$Table)
    Region$$Table$$Limit                     0x0800b62c   Number         0  anon$$obj.o(Region$$Table)
    __ctype                                  0x0800b655   Data           0  lc_ctype_c.o(locale$$data)
    SHT$$INIT_ARRAY$$Base                    0x0800b758   Number         0  bluetooth.o(.init_array)
    SHT$$INIT_ARRAY$$Limit                   0x0800b764   Number         0  init_aeabi.o(.init_array)
    SystemCoreClock                          0x20001350   Data           4  system_stm32f4xx.o(.data)
    AHBPrescTable                            0x20001354   Data          16  system_stm32f4xx.o(.data)
    osRtxInfo                                0x20001378   Data         168  rtx_kernel.o(.data.os)
    guard variable for Compressor::instance()::com 0x20001420   Data           4  boottask.o(.data__ZZN10Compressor8instanceEvE3com)
    Compressor::instance()::com              0x20001424   Data           1  boottask.o(.data__ZZN10Compressor8instanceEvE3com)
    guard variable for OTAManager::instance()::t 0x20001428   Data           4  mainevent.o(.data__ZZN10OTAManager8instanceEvE1t)
    guard variable for DeliverTask::instance()::INSTANCE 0x2000142c   Data           4  bluetoothevent.o(.data__ZZN11DeliverTask8instanceEvE8INSTANCE)
    guard variable for FlashMemory::instance()::m 0x20001430   Data           4  bluetoothevent.o(.data__ZZN11FlashMemory8instanceEvE1m)
    guard variable for MotorDriver::instance()::driver 0x20001434   Data           4  boottask.o(.data__ZZN11MotorDriver8instanceEvE6driver)
    MotorDriver::instance()::driver          0x20001438   Data           1  boottask.o(.data__ZZN11MotorDriver8instanceEvE6driver)
    guard variable for PositionSwitch::instance()::instance 0x2000143c   Data           4  boottask.o(.data__ZZN14PositionSwitch8instanceEvE8instance)
    guard variable for StatusUpdateTask::instance()::task 0x20001440   Data           4  boottask.o(.data__ZZN16StatusUpdateTask8instanceEvE4task)
    guard variable for MessageDispenseTask::instance()::INSTANCE 0x20001444   Data           4  boottask.o(.data__ZZN19MessageDispenseTask8instanceEvE8INSTANCE)
    guard variable for Led::instance()::l    0x20001448   Data           4  boottask.o(.data__ZZN3Led8instanceEvE1l)
    Led::instance()::l                       0x2000144c   Data           1  boottask.o(.data__ZZN3Led8instanceEvE1l)
    guard variable for Fridge::instance()::fridge 0x20001450   Data           4  boottask.o(.data__ZZN6Fridge8instanceEvE6fridge)
    guard variable for Ds18b20::instance()::device 0x20001454   Data           4  boottask.o(.data__ZZN7Ds18b208instanceEvE6device)
    Ds18b20::instance()::device              0x20001458   Data           1  boottask.o(.data__ZZN7Ds18b208instanceEvE6device)
    guard variable for LogUart::instance()::uart 0x2000145c   Data           4  logevent.o(.data__ZZN7LogUart8instanceEvE4uart)
    guard variable for BootTask::instance()::task 0x20001460   Data           4  main.o(.data__ZZN8BootTask8instanceEvE4task)
    guard variable for MainUart::instance()::uart 0x20001464   Data           4  mainevent.o(.data__ZZN8MainUart8instanceEvE4uart)
    guard variable for Bluetooth::instance()::ble 0x20001468   Data           4  bluetoothevent.o(.data__ZZN9Bluetooth8instanceEvE3ble)
    guard variable for PickMotor::instance()::pickMotor 0x2000146c   Data           4  boottask.o(.data__ZZN9PickMotor8instanceEvE9pickMotor)
    guard variable for RobotArm1::instance()::r 0x20001470   Data           4  bluetoothevent.o(.data__ZZN9RobotArm18instanceEvE1r)
    guard variable for RobotArm2::instance()::instance 0x20001474   Data           4  bluetoothevent.o(.data__ZZN9RobotArm28instanceEvE8instance)
    __libspace_start                         0x20001d48   Data          96  libspace.o(.bss)
    OTAManager::instance()::t                0x20001da8   Data        4216  mainevent.o(.bss__ZZN10OTAManager8instanceEvE1t)
    __temporary_stack_top$libspace           0x20001da8   Data           0  libspace.o(.bss)
    DeliverTask::instance()::INSTANCE        0x20002e20   Data        2784  bluetoothevent.o(.bss__ZZN11DeliverTask8instanceEvE8INSTANCE)
    FlashMemory::instance()::m               0x20003900   Data        4096  bluetoothevent.o(.bss__ZZN11FlashMemory8instanceEvE1m)
    PositionSwitch::instance()::instance     0x20004900   Data          56  boottask.o(.bss__ZZN14PositionSwitch8instanceEvE8instance)
    StatusUpdateTask::instance()::task       0x20004938   Data         648  boottask.o(.bss__ZZN16StatusUpdateTask8instanceEvE4task)
    MessageDispenseTask::instance()::INSTANCE 0x20004bc0   Data        1152  boottask.o(.bss__ZZN19MessageDispenseTask8instanceEvE8INSTANCE)
    Fridge::instance()::fridge               0x20005040   Data          88  boottask.o(.bss__ZZN6Fridge8instanceEvE6fridge)
    LogUart::instance()::uart                0x20005098   Data        3896  logevent.o(.bss__ZZN7LogUart8instanceEvE4uart)
    BootTask::instance()::task               0x20005fd0   Data         640  main.o(.bss__ZZN8BootTask8instanceEvE4task)
    MainUart::instance()::uart               0x20006250   Data        2792  mainevent.o(.bss__ZZN8MainUart8instanceEvE4uart)
    Bluetooth::instance()::ble               0x20006d38   Data       12632  bluetoothevent.o(.bss__ZZN9Bluetooth8instanceEvE3ble)
    PickMotor::instance()::pickMotor         0x20009e90   Data          56  boottask.o(.bss__ZZN9PickMotor8instanceEvE9pickMotor)
    RobotArm1::instance()::r                 0x20009ec8   Data          88  bluetoothevent.o(.bss__ZZN9RobotArm18instanceEvE1r)
    RobotArm2::instance()::instance          0x20009f20   Data          88  bluetoothevent.o(.bss__ZZN9RobotArm28instanceEvE8instance)



==============================================================================

Memory Map of the image

  Image Entry point : 0x08004189

  Load Region LR_IROM1 (Base: 0x08004000, Size: 0x00008bdc, Max: 0x0007c000, ABSOLUTE, COMPRESSED[0x000077a4])

    Execution Region ER_IROM1 (Base: 0x08004000, Size: 0x00007764, Max: 0x0007c000, ABSOLUTE)

    Base Addr    Size         Type   Attr      Idx    E Section Name        Object

    0x08004000   0x00000188   Data   RO           66    RESET               startup_stm32f40_41xxx.o
    0x08004188   0x00000008   Code   RO         3240  * !!!main             c_w.l(__main.o)
    0x08004190   0x00000034   Code   RO         3829    !!!scatter          c_w.l(__scatter.o)
    0x080041c4   0x0000003a   Code   RO         3827    !!dczerorl          c_w.l(__dczerorl.o)
    0x080041fe   0x00000002   PAD
    0x08004200   0x0000001c   Code   RO         3831    !!handler_zi        c_w.l(__scatter_zi.o)
    0x0800421c   0x00000000   Code   RO         3445    .ARM.Collect$$_printf_percent$$00000000  c_w.l(_printf_percent.o)
    0x0800421c   0x00000006   Code   RO         3434    .ARM.Collect$$_printf_percent$$00000001  c_w.l(_printf_n.o)
    0x08004222   0x00000006   Code   RO         3436    .ARM.Collect$$_printf_percent$$00000002  c_w.l(_printf_p.o)
    0x08004228   0x00000006   Code   RO         3441    .ARM.Collect$$_printf_percent$$00000003  c_w.l(_printf_f.o)
    0x0800422e   0x00000006   Code   RO         3442    .ARM.Collect$$_printf_percent$$00000004  c_w.l(_printf_e.o)
    0x08004234   0x00000006   Code   RO         3443    .ARM.Collect$$_printf_percent$$00000005  c_w.l(_printf_g.o)
    0x0800423a   0x00000006   Code   RO         3444    .ARM.Collect$$_printf_percent$$00000006  c_w.l(_printf_a.o)
    0x08004240   0x0000000a   Code   RO         3449    .ARM.Collect$$_printf_percent$$00000007  c_w.l(_printf_ll.o)
    0x0800424a   0x00000006   Code   RO         3438    .ARM.Collect$$_printf_percent$$00000008  c_w.l(_printf_i.o)
    0x08004250   0x00000006   Code   RO         3439    .ARM.Collect$$_printf_percent$$00000009  c_w.l(_printf_d.o)
    0x08004256   0x00000006   Code   RO         3440    .ARM.Collect$$_printf_percent$$0000000A  c_w.l(_printf_u.o)
    0x0800425c   0x00000006   Code   RO         3437    .ARM.Collect$$_printf_percent$$0000000B  c_w.l(_printf_o.o)
    0x08004262   0x00000006   Code   RO         3435    .ARM.Collect$$_printf_percent$$0000000C  c_w.l(_printf_x.o)
    0x08004268   0x00000006   Code   RO         3446    .ARM.Collect$$_printf_percent$$0000000D  c_w.l(_printf_lli.o)
    0x0800426e   0x00000006   Code   RO         3447    .ARM.Collect$$_printf_percent$$0000000E  c_w.l(_printf_lld.o)
    0x08004274   0x00000006   Code   RO         3448    .ARM.Collect$$_printf_percent$$0000000F  c_w.l(_printf_llu.o)
    0x0800427a   0x00000006   Code   RO         3453    .ARM.Collect$$_printf_percent$$00000010  c_w.l(_printf_llo.o)
    0x08004280   0x00000006   Code   RO         3454    .ARM.Collect$$_printf_percent$$00000011  c_w.l(_printf_llx.o)
    0x08004286   0x0000000a   Code   RO         3450    .ARM.Collect$$_printf_percent$$00000012  c_w.l(_printf_l.o)
    0x08004290   0x00000006   Code   RO         3432    .ARM.Collect$$_printf_percent$$00000013  c_w.l(_printf_c.o)
    0x08004296   0x00000006   Code   RO         3433    .ARM.Collect$$_printf_percent$$00000014  c_w.l(_printf_s.o)
    0x0800429c   0x00000006   Code   RO         3451    .ARM.Collect$$_printf_percent$$00000015  c_w.l(_printf_lc.o)
    0x080042a2   0x00000006   Code   RO         3452    .ARM.Collect$$_printf_percent$$00000016  c_w.l(_printf_ls.o)
    0x080042a8   0x00000004   Code   RO         3550    .ARM.Collect$$_printf_percent$$00000017  c_w.l(_printf_percent_end.o)
    0x080042ac   0x00000002   Code   RO         3695    .ARM.Collect$$libinit$$00000000  c_w.l(libinit.o)
    0x080042ae   0x00000004   Code   RO         3461    .ARM.Collect$$libinit$$00000001  c_w.l(libinit2.o)
    0x080042b2   0x00000000   Code   RO         3464    .ARM.Collect$$libinit$$00000004  c_w.l(libinit2.o)
    0x080042b2   0x00000000   Code   RO         3467    .ARM.Collect$$libinit$$0000000A  c_w.l(libinit2.o)
    0x080042b2   0x00000000   Code   RO         3469    .ARM.Collect$$libinit$$0000000C  c_w.l(libinit2.o)
    0x080042b2   0x00000000   Code   RO         3471    .ARM.Collect$$libinit$$0000000E  c_w.l(libinit2.o)
    0x080042b2   0x00000006   Code   RO         3472    .ARM.Collect$$libinit$$0000000F  c_w.l(libinit2.o)
    0x080042b8   0x00000000   Code   RO         3474    .ARM.Collect$$libinit$$00000011  c_w.l(libinit2.o)
    0x080042b8   0x0000000c   Code   RO         3475    .ARM.Collect$$libinit$$00000012  c_w.l(libinit2.o)
    0x080042c4   0x00000000   Code   RO         3476    .ARM.Collect$$libinit$$00000013  c_w.l(libinit2.o)
    0x080042c4   0x00000000   Code   RO         3478    .ARM.Collect$$libinit$$00000015  c_w.l(libinit2.o)
    0x080042c4   0x0000000a   Code   RO         3479    .ARM.Collect$$libinit$$00000016  c_w.l(libinit2.o)
    0x080042ce   0x00000000   Code   RO         3480    .ARM.Collect$$libinit$$00000017  c_w.l(libinit2.o)
    0x080042ce   0x00000000   Code   RO         3482    .ARM.Collect$$libinit$$00000019  c_w.l(libinit2.o)
    0x080042ce   0x00000000   Code   RO         3484    .ARM.Collect$$libinit$$0000001B  c_w.l(libinit2.o)
    0x080042ce   0x00000000   Code   RO         3486    .ARM.Collect$$libinit$$0000001D  c_w.l(libinit2.o)
    0x080042ce   0x00000000   Code   RO         3488    .ARM.Collect$$libinit$$0000001F  c_w.l(libinit2.o)
    0x080042ce   0x00000000   Code   RO         3490    .ARM.Collect$$libinit$$00000021  c_w.l(libinit2.o)
    0x080042ce   0x00000000   Code   RO         3492    .ARM.Collect$$libinit$$00000023  c_w.l(libinit2.o)
    0x080042ce   0x00000000   Code   RO         3494    .ARM.Collect$$libinit$$00000025  c_w.l(libinit2.o)
    0x080042ce   0x00000000   Code   RO         3498    .ARM.Collect$$libinit$$0000002C  c_w.l(libinit2.o)
    0x080042ce   0x00000000   Code   RO         3500    .ARM.Collect$$libinit$$0000002E  c_w.l(libinit2.o)
    0x080042ce   0x00000000   Code   RO         3502    .ARM.Collect$$libinit$$00000030  c_w.l(libinit2.o)
    0x080042ce   0x00000004   Code   RO         3503    .ARM.Collect$$libinit$$00000031  c_w.l(libinit2.o)
    0x080042d2   0x00000000   Code   RO         3504    .ARM.Collect$$libinit$$00000032  c_w.l(libinit2.o)
    0x080042d2   0x00000002   Code   RO         3505    .ARM.Collect$$libinit$$00000033  c_w.l(libinit2.o)
    0x080042d4   0x00000002   Code   RO         3804    .ARM.Collect$$libshutdown$$00000000  c_w.l(libshutdown.o)
    0x080042d6   0x00000000   Code   RO         3810    .ARM.Collect$$libshutdown$$00000002  c_w.l(libshutdown2.o)
    0x080042d6   0x00000000   Code   RO         3812    .ARM.Collect$$libshutdown$$00000004  c_w.l(libshutdown2.o)
    0x080042d6   0x00000000   Code   RO         3815    .ARM.Collect$$libshutdown$$00000007  c_w.l(libshutdown2.o)
    0x080042d6   0x00000000   Code   RO         3818    .ARM.Collect$$libshutdown$$0000000A  c_w.l(libshutdown2.o)
    0x080042d6   0x00000000   Code   RO         3820    .ARM.Collect$$libshutdown$$0000000C  c_w.l(libshutdown2.o)
    0x080042d6   0x00000000   Code   RO         3823    .ARM.Collect$$libshutdown$$0000000F  c_w.l(libshutdown2.o)
    0x080042d6   0x00000002   Code   RO         3824    .ARM.Collect$$libshutdown$$00000010  c_w.l(libshutdown2.o)
    0x080042d8   0x00000000   Code   RO         3363    .ARM.Collect$$rtentry$$00000000  c_w.l(__rtentry.o)
    0x080042d8   0x00000000   Code   RO         3522    .ARM.Collect$$rtentry$$00000002  c_w.l(__rtentry2.o)
    0x080042d8   0x00000006   Code   RO         3534    .ARM.Collect$$rtentry$$00000004  c_w.l(__rtentry4.o)
    0x080042de   0x00000008   Code   RO         3523    .ARM.Collect$$rtentry$$00000008  c_w.l(__rtentry2.o)
    0x080042e6   0x00000004   Code   RO         3525    .ARM.Collect$$rtentry$$0000000A  c_w.l(__rtentry2.o)
    0x080042ea   0x00000000   Code   RO         3527    .ARM.Collect$$rtentry$$0000000C  c_w.l(__rtentry2.o)
    0x080042ea   0x00000008   Code   RO         3528    .ARM.Collect$$rtentry$$0000000D  c_w.l(__rtentry2.o)
    0x080042f2   0x00000002   Code   RO         3714    .ARM.Collect$$rtexit$$00000000  c_w.l(rtexit.o)
    0x080042f4   0x00000000   Code   RO         3769    .ARM.Collect$$rtexit$$00000002  c_w.l(rtexit2.o)
    0x080042f4   0x00000004   Code   RO         3770    .ARM.Collect$$rtexit$$00000003  c_w.l(rtexit2.o)
    0x080042f8   0x00000006   Code   RO         3771    .ARM.Collect$$rtexit$$00000004  c_w.l(rtexit2.o)
    0x080042fe   0x00000002   PAD
    0x08004300   0x0000003c   Code   RO           67    .text               startup_stm32f40_41xxx.o
    0x0800433c   0x000000b8   Code   RO         3082    .text               RTX_CM4F.lib(irq_cm4f.o)
    0x080043f4   0x00000024   Code   RO         3228    .text               c_w.l(c89vsprintf.o)
    0x08004418   0x0000008a   Code   RO         3230    .text               c_w.l(rt_memcpy_v6.o)
    0x080044a2   0x00000010   Code   RO         3232    .text               c_w.l(aeabi_memset4.o)
    0x080044b2   0x00000044   Code   RO         3234    .text               c_w.l(rt_memclr.o)
    0x080044f6   0x0000004e   Code   RO         3236    .text               c_w.l(rt_memclr_w.o)
    0x08004544   0x00000006   Code   RO         3238    .text               c_w.l(heapauxi.o)
    0x0800454a   0x00000002   PAD
    0x0800454c   0x00000024   Code   RO         3245    .text               c_w.l(init_aeabi.o)
    0x08004570   0x0000004e   Code   RO         3366    .text               c_w.l(_printf_pad.o)
    0x080045be   0x00000024   Code   RO         3368    .text               c_w.l(_printf_truncate.o)
    0x080045e2   0x00000052   Code   RO         3370    .text               c_w.l(_printf_str.o)
    0x08004634   0x00000078   Code   RO         3372    .text               c_w.l(_printf_dec.o)
    0x080046ac   0x00000028   Code   RO         3374    .text               c_w.l(_printf_charcount.o)
    0x080046d4   0x00000030   Code   RO         3376    .text               c_w.l(_printf_char_common.o)
    0x08004704   0x0000000a   Code   RO         3378    .text               c_w.l(_sputc.o)
    0x0800470e   0x00000002   PAD
    0x08004710   0x000000bc   Code   RO         3380    .text               c_w.l(_printf_wctomb.o)
    0x080047cc   0x0000007c   Code   RO         3383    .text               c_w.l(_printf_longlong_dec.o)
    0x08004848   0x00000070   Code   RO         3389    .text               c_w.l(_printf_oct_int_ll.o)
    0x080048b8   0x00000094   Code   RO         3409    .text               c_w.l(_printf_hex_int_ll_ptr.o)
    0x0800494c   0x00000188   Code   RO         3429    .text               c_w.l(__printf_flags_ss_wp.o)
    0x08004ad4   0x0000000e   Code   RO         3455    .text               c_w.l(defsig_pvfn_outer.o)
    0x08004ae2   0x00000064   Code   RO         3459    .text               c_w.l(rt_memcpy_w.o)
    0x08004b46   0x0000008a   Code   RO         3538    .text               c_w.l(lludiv10.o)
    0x08004bd0   0x000000b2   Code   RO         3540    .text               c_w.l(_printf_intcommon.o)
    0x08004c82   0x0000041a   Code   RO         3542    .text               c_w.l(_printf_fp_dec.o)
    0x0800509c   0x0000002c   Code   RO         3546    .text               c_w.l(_printf_char.o)
    0x080050c8   0x0000002c   Code   RO         3548    .text               c_w.l(_printf_wchar.o)
    0x080050f4   0x00000040   Code   RO         3551    .text               c_w.l(_wcrtomb.o)
    0x08005134   0x0000000a   Code   RO         3553    .text               c_w.l(defsig_exit.o)
    0x0800513e   0x00000002   PAD
    0x08005140   0x00000030   Code   RO         3555    .text               c_w.l(defsig_pvfn_inner.o)
    0x08005170   0x0000000c   Code   RO         3574    .text               c_w.l(sys_exit.o)
    0x0800517c   0x0000004a   Code   RO         3576    .text               c_w.l(sys_stackheap_outer.o)
    0x080051c6   0x00000002   PAD
    0x080051c8   0x00000010   Code   RO         3578    .text               c_w.l(rt_ctype_table.o)
    0x080051d8   0x0000000a   Code   RO         3585    .text               c_w.l(rt_locale_twolibspace.o)
    0x080051e2   0x00000002   PAD
    0x080051e4   0x00000080   Code   RO         3650    .text               c_w.l(_printf_fp_infnan.o)
    0x08005264   0x000000dc   Code   RO         3652    .text               c_w.l(bigflt0.o)
    0x08005340   0x00000012   Code   RO         3680    .text               c_w.l(exit.o)
    0x08005352   0x00000032   Code   RO         3686    .text               c_w.l(defsig_general.o)
    0x08005384   0x0000000e   Code   RO         3704    .text               c_w.l(sys_wrch.o)
    0x08005392   0x00000002   PAD
    0x08005394   0x00000008   Code   RO         3708    .text               c_w.l(libspace.o)
    0x0800539c   0x00000002   Code   RO         3711    .text               c_w.l(use_no_semi.o)
    0x0800539e   0x00000000   Code   RO         3713    .text               c_w.l(indicate_semi.o)
    0x0800539e   0x00000002   PAD
    0x080053a0   0x00000080   Code   RO         3764    .text               c_w.l(strcmpv7m.o)
    0x08005420   0x00000024   Code   RO         2977    .text.osDelay       RTX_CM4F.lib(rtx_delay.o)
    0x08005444   0x0000003a   Code   RO         2806    .text.osKernelGetState  RTX_CM4F.lib(rtx_kernel.o)
    0x0800547e   0x00000002   PAD
    0x08005480   0x00000044   Code   RO         2802    .text.osKernelInitialize  RTX_CM4F.lib(rtx_kernel.o)
    0x080054c4   0x00000044   Code   RO         2808    .text.osKernelStart  RTX_CM4F.lib(rtx_kernel.o)
    0x08005508   0x000000b4   Code   RO         3057    .text.osMessageQueueGet  RTX_CM4F.lib(rtx_msgqueue.o)
    0x080055bc   0x00000042   Code   RO         3051    .text.osMessageQueueNew  RTX_CM4F.lib(rtx_msgqueue.o)
    0x080055fe   0x00000002   PAD
    0x08005600   0x00000084   Code   RO         3055    .text.osMessageQueuePut  RTX_CM4F.lib(rtx_msgqueue.o)
    0x08005684   0x00000024   Code   RO         3010    .text.osMutexAcquire  RTX_CM4F.lib(rtx_mutex.o)
    0x080056a8   0x00000024   Code   RO         3016    .text.osMutexDelete  RTX_CM4F.lib(rtx_mutex.o)
    0x080056cc   0x00000042   Code   RO         3006    .text.osMutexNew    RTX_CM4F.lib(rtx_mutex.o)
    0x0800570e   0x00000002   PAD
    0x08005710   0x00000024   Code   RO         3012    .text.osMutexRelease  RTX_CM4F.lib(rtx_mutex.o)
    0x08005734   0x0000006e   Code   RO         3128    .text.osRtxMemoryAlloc  RTX_CM4F.lib(rtx_memory.o)
    0x080057a2   0x00000002   PAD
    0x080057a4   0x00000058   Code   RO         3130    .text.osRtxMemoryFree  RTX_CM4F.lib(rtx_memory.o)
    0x080057fc   0x00000030   Code   RO         3126    .text.osRtxMemoryInit  RTX_CM4F.lib(rtx_memory.o)
    0x0800582c   0x0000004c   Code   RO         3145    .text.osRtxMemoryPoolAlloc  RTX_CM4F.lib(rtx_mempool.o)
    0x08005878   0x0000005a   Code   RO         3147    .text.osRtxMemoryPoolFree  RTX_CM4F.lib(rtx_mempool.o)
    0x080058d2   0x00000002   PAD
    0x080058d4   0x00000050   Code   RO         3143    .text.osRtxMemoryPoolInit  RTX_CM4F.lib(rtx_mempool.o)
    0x08005924   0x000001be   Code   RO         3029    .text.osRtxMessageQueuePostProcess  RTX_CM4F.lib(rtx_msgqueue.o)
    0x08005ae2   0x00000002   PAD
    0x08005ae4   0x0000004c   Code   RO         2992    .text.osRtxMutexOwnerRelease  RTX_CM4F.lib(rtx_mutex.o)
    0x08005b30   0x000000a8   Code   RO         3202    .text.osRtxPendSV_Handler  RTX_CM4F.lib(rtx_system.o)
    0x08005bd8   0x00000078   Code   RO         3204    .text.osRtxPostProcess  RTX_CM4F.lib(rtx_system.o)
    0x08005c50   0x0000000c   Code   RO         3200    .text.osRtxSysTimerAckIRQ  RTX_CM4F.lib(rtx_system.o)
    0x08005c5c   0x0000000e   Code   RO         3208    .text.osRtxSysTimerEnable  RTX_CM4F.lib(rtx_system.o)
    0x08005c6a   0x00000002   PAD
    0x08005c6c   0x0000003a   Code   RO         3206    .text.osRtxSysTimerSetup  RTX_CM4F.lib(rtx_system.o)
    0x08005ca6   0x00000002   PAD
    0x08005ca8   0x00000088   Code   RO         2860    .text.osRtxThreadDelayTick  RTX_CM4F.lib(rtx_thread.o)
    0x08005d30   0x00000158   Code   RO         2870    .text.osRtxThreadDispatch  RTX_CM4F.lib(rtx_thread.o)
    0x08005e88   0x0000001a   Code   RO         2844    .text.osRtxThreadListGet  RTX_CM4F.lib(rtx_thread.o)
    0x08005ea2   0x00000002   PAD
    0x08005ea4   0x00000038   Code   RO         2842    .text.osRtxThreadListPut  RTX_CM4F.lib(rtx_thread.o)
    0x08005edc   0x0000001a   Code   RO         2850    .text.osRtxThreadListRemove  RTX_CM4F.lib(rtx_thread.o)
    0x08005ef6   0x00000002   PAD
    0x08005ef8   0x00000060   Code   RO         2848    .text.osRtxThreadListSort  RTX_CM4F.lib(rtx_thread.o)
    0x08005f58   0x0000008c   Code   RO         2876    .text.osRtxThreadPostProcess  RTX_CM4F.lib(rtx_thread.o)
    0x08005fe4   0x00000048   Code   RO         2854    .text.osRtxThreadReadyPut  RTX_CM4F.lib(rtx_thread.o)
    0x0800602c   0x00000014   Code   RO         2862    .text.osRtxThreadRegPtr  RTX_CM4F.lib(rtx_thread.o)
    0x08006040   0x0000002e   Code   RO         2868    .text.osRtxThreadStackCheck  RTX_CM4F.lib(rtx_thread.o)
    0x0800606e   0x00000002   PAD
    0x08006070   0x00000012   Code   RO         2866    .text.osRtxThreadSwitch  RTX_CM4F.lib(rtx_thread.o)
    0x08006082   0x00000002   PAD
    0x08006084   0x000000e2   Code   RO         2874    .text.osRtxThreadWaitEnter  RTX_CM4F.lib(rtx_thread.o)
    0x08006166   0x00000002   PAD
    0x08006168   0x000000ce   Code   RO         2872    .text.osRtxThreadWaitExit  RTX_CM4F.lib(rtx_thread.o)
    0x08006236   0x00000002   PAD
    0x08006238   0x00000078   Code   RO         3198    .text.osRtxTick_Handler  RTX_CM4F.lib(rtx_system.o)
    0x080062b0   0x000000aa   Code   RO         3087    .text.osRtxTimerTick  RTX_CM4F.lib(rtx_timer.o)
    0x0800635a   0x00000002   PAD
    0x0800635c   0x0000000e   Code   RO         2880    .text.osThreadExit  RTX_CM4F.lib(rtx_thread.o)
    0x0800636a   0x00000002   PAD
    0x0800636c   0x00000042   Code   RO         2922    .text.osThreadNew   RTX_CM4F.lib(rtx_thread.o)
    0x080063ae   0x00000002   PAD
    0x080063b0   0x00000024   Code   RO         2948    .text.osThreadTerminate  RTX_CM4F.lib(rtx_thread.o)
    0x080063d4   0x00000014   Code   RO         2973    .text.svcRtxDelay   RTX_CM4F.lib(rtx_delay.o)
    0x080063e8   0x0000000c   Code   RO         2780    .text.svcRtxKernelGetState  RTX_CM4F.lib(rtx_kernel.o)
    0x080063f4   0x000001ac   Code   RO         2776    .text.svcRtxKernelInitialize  RTX_CM4F.lib(rtx_kernel.o)
    0x080065a0   0x00000096   Code   RO         2782    .text.svcRtxKernelStart  RTX_CM4F.lib(rtx_kernel.o)
    0x08006636   0x00000002   PAD
    0x08006638   0x0000019a   Code   RO         3037    .text.svcRtxMessageQueueGet  RTX_CM4F.lib(rtx_msgqueue.o)
    0x080067d2   0x00000002   PAD
    0x080067d4   0x00000160   Code   RO         3031    .text.svcRtxMessageQueueNew  RTX_CM4F.lib(rtx_msgqueue.o)
    0x08006934   0x00000118   Code   RO         3035    .text.svcRtxMessageQueuePut  RTX_CM4F.lib(rtx_msgqueue.o)
    0x08006a4c   0x0000009e   Code   RO         2998    .text.svcRtxMutexAcquire  RTX_CM4F.lib(rtx_mutex.o)
    0x08006aea   0x00000002   PAD
    0x08006aec   0x000000d6   Code   RO         3004    .text.svcRtxMutexDelete  RTX_CM4F.lib(rtx_mutex.o)
    0x08006bc2   0x00000002   PAD
    0x08006bc4   0x00000072   Code   RO         2994    .text.svcRtxMutexNew  RTX_CM4F.lib(rtx_mutex.o)
    0x08006c36   0x00000002   PAD
    0x08006c38   0x000000c8   Code   RO         3000    .text.svcRtxMutexRelease  RTX_CM4F.lib(rtx_mutex.o)
    0x08006d00   0x000000ba   Code   RO         2906    .text.svcRtxThreadExit  RTX_CM4F.lib(rtx_thread.o)
    0x08006dba   0x00000002   PAD
    0x08006dbc   0x00000240   Code   RO         2878    .text.svcRtxThreadNew  RTX_CM4F.lib(rtx_thread.o)
    0x08006ffc   0x000001f4   Code   RO         2908    .text.svcRtxThreadTerminate  RTX_CM4F.lib(rtx_thread.o)
    0x080071f0   0x0000003e   Code   RO         3655    CL$$btod_d2e        c_w.l(btod.o)
    0x0800722e   0x00000046   Code   RO         3657    CL$$btod_d2e_denorm_low  c_w.l(btod.o)
    0x08007274   0x00000060   Code   RO         3656    CL$$btod_d2e_norm_op1  c_w.l(btod.o)
    0x080072d4   0x00000338   Code   RO         3665    CL$$btod_div_common  c_w.l(btod.o)
    0x0800760c   0x000000c6   Code   RO         3662    CL$$btod_e2e        c_w.l(btod.o)
    0x080076d2   0x00000028   Code   RO         3659    CL$$btod_ediv       c_w.l(btod.o)
    0x080076fa   0x00000028   Code   RO         3658    CL$$btod_emul       c_w.l(btod.o)
    0x08007722   0x00000244   Code   RO         3664    CL$$btod_mult_common  c_w.l(btod.o)
    0x08007966   0x00000002   PAD
    0x08007968   0x000000b4   Code   RO            4    i.SetSysClock       system_stm32f4xx.o
    0x08007a1c   0x0000005c   Code   RO            6    i.SystemInit        system_stm32f4xx.o
    0x08007a78   0x000000a8   Code   RO         1784    i.UART5_IRQHandler  loguart.o
    0x08007b20   0x000000a8   Code   RO         1380    i.USART2_IRQHandler  bluetooth.o
    0x08007bc8   0x000000a8   Code   RO         1880    i.USART3_IRQHandler  mainuart.o
    0x08007c70   0x00000054   Code   RO         2337    i._Z12vDrv8704Initv  motordriver.o
    0x08007cc4   0x00000012   Code   RO         2564    i._Z4copyPvPKvj     otamanager.o
    0x08007cd6   0x00000002   PAD
    0x08007cd8   0x000000ec   Code   RO         2339    i._Z8vSpiInitv      motordriver.o
    0x08007dc4   0x0000005c   Code   RO         2340    i._Z9vSpiWriteht    motordriver.o
    0x08007e20   0x00000024   Code   RO          989    i._ZN10BaseOutput13buildAndWriteEv  statusupdatetask.o
    0x08007e44   0x00000042   Code   RO         2613    i._ZN10BaseOutput5buildEPh  baseoutput.o
    0x08007e86   0x00000022   Code   RO         2614    i._ZN10BaseOutput6formatEPKcz  baseoutput.o
    0x08007ea8   0x0000000e   Code   RO          983    i._ZN10BaseOutput7append1Eh  statusupdatetask.o
    0x08007eb6   0x00000024   Code   RO          977    i._ZN10BaseOutput7append2Et  statusupdatetask.o
    0x08007eda   0x00000008   Code   RO          971    i._ZN10BaseOutput9setActionEh  statusupdatetask.o
    0x08007ee2   0x00000002   PAD
    0x08007ee4   0x0000002c   Code   RO         1274    i._ZN10Compressor8instanceEv  delivertask.o
    0x08007f10   0x00000034   Code   RO         1238    i._ZN10Compressor9isCheckedEv  delivertask.o
    0x08007f44   0x00000050   Code   RO         1483    i._ZN10CompressorC1Ev  compressor.o
    0x08007f94   0x000000dc   Code   RO         2565    i._ZN10OTAManager13setOTAMessageEj  otamanager.o
    0x08008070   0x0000008c   Code   RO          577    i._ZN10OTAManager4initEj  mainevent.o
    0x080080fc   0x00000100   Code   RO         2566    i._ZN10OTAManager6xWriteEtPKhj  otamanager.o
    0x080081fc   0x0000002c   Code   RO          547    i._ZN10OTAManager8instanceEv  mainevent.o
    0x08008228   0x00000002   Code   RO         2567    i._ZN10OTAManagerC1Ev  otamanager.o
    0x0800822a   0x00000014   Code   RO         2430    i._ZN10PIDControl4initEifff  pidcontrol.o
    0x0800823e   0x00000052   Code   RO         2431    i._ZN10PIDControl9nextValueEi  pidcontrol.o
    0x08008290   0x00000046   Code   RO         1130    i._ZN11DeliverTask10testFridgeER5Event  delivertask.o
    0x080082d6   0x0000008a   Code   RO         1131    i._ZN11DeliverTask12robotArmTestER5Event  delivertask.o
    0x08008360   0x00000082   Code   RO         1132    i._ZN11DeliverTask12setGoodsTypeER5Event  delivertask.o
    0x080083e2   0x0000004e   Code   RO         1133    i._ZN11DeliverTask12testRobotArmER5Event  delivertask.o
    0x08008430   0x00000066   Code   RO         1134    i._ZN11DeliverTask13readGoodsTypeER5Event  delivertask.o
    0x08008496   0x00000002   PAD
    0x08008498   0x00000088   Code   RO         1135    i._ZN11DeliverTask13robotArmCheckER5Event  delivertask.o
    0x08008520   0x00000054   Code   RO         1136    i._ZN11DeliverTask13testPickMotorER5Event  delivertask.o
    0x08008574   0x00000038   Code   RO         1137    i._ZN11DeliverTask14testCompressorER5Event  delivertask.o
    0x080085ac   0x00000072   Code   RO         1138    i._ZN11DeliverTask16settingGoodsTypeER5Event  delivertask.o
    0x0800861e   0x00000002   PAD
    0x08008620   0x000000d0   Code   RO         1139    i._ZN11DeliverTask3runEv  delivertask.o
    0x080086f0   0x0000004a   Code   RO         1140    i._ZN11DeliverTask4initER5Event  delivertask.o
    0x0800873a   0x0000012e   Code   RO         1141    i._ZN11DeliverTask7deliverER5Event  delivertask.o
    0x08008868   0x00000224   Code   RO         1142    i._ZN11DeliverTask7deliverEhhtR5Event  delivertask.o
    0x08008a8c   0x0000002c   Code   RO          541    i._ZN11DeliverTask8instanceEv  mainevent.o
    0x08008ab8   0x0000003c   Code   RO         1143    i._ZN11DeliverTaskC1Ev  delivertask.o
    0x08008af4   0x0000006e   Code   RO         1590    i._ZN11FlashMemory10vWriteDataEjPKhj  flashmemory.o
    0x08008b62   0x00000002   PAD
    0x08008b64   0x00000064   Code   RO         1591    i._ZN11FlashMemory12vPageProgramEjPKhj  flashmemory.o
    0x08008bc8   0x00000054   Code   RO         1592    i._ZN11FlashMemory12vSectorEarseEj  flashmemory.o
    0x08008c1c   0x0000001c   Code   RO         1593    i._ZN11FlashMemory12vWriteEnableEv  flashmemory.o
    0x08008c38   0x00000024   Code   RO         1594    i._ZN11FlashMemory12xQueryStatusEv  flashmemory.o
    0x08008c5c   0x00000020   Code   RO         1595    i._ZN11FlashMemory14xTranslateByteEh  flashmemory.o
    0x08008c7c   0x00000098   Code   RO         1596    i._ZN11FlashMemory16initSpiInterfaceEv  flashmemory.o
    0x08008d14   0x0000001c   Code   RO         1250    i._ZN11FlashMemory4saveEv  delivertask.o
    0x08008d30   0x0000002c   Code   RO          255    i._ZN11FlashMemory8instanceEv  bluetoothevent.o
    0x08008d5c   0x00000050   Code   RO         1598    i._ZN11FlashMemory9vReadDataEjPhj  flashmemory.o
    0x08008dac   0x0000001a   Code   RO         1599    i._ZN11FlashMemoryC1Ev  flashmemory.o
    0x08008dc6   0x00000002   PAD
    0x08008dc8   0x00000038   Code   RO         2342    i._ZN11MotorDriver6enableEv  motordriver.o
    0x08008e00   0x0000000c   Code   RO         2343    i._ZN11MotorDriver7disableEv  motordriver.o
    0x08008e0c   0x0000002c   Code   RO         1286    i._ZN11MotorDriver8instanceEv  delivertask.o
    0x08008e38   0x00000018   Code   RO         2344    i._ZN11MotorDriverC1Ev  motordriver.o
    0x08008e50   0x00000016   Code   RO          740    i._ZN12BaseProtocol5writeEv  logevent.o
    0x08008e66   0x00000076   Code   RO         2462    i._ZN12BaseProtocolC1EPhRK5Eventh  baseprotocol.o
    0x08008edc   0x0000004c   Code   RO          203    i._ZN14BluetoothEvent14onStatusChangeEhhh  bluetoothevent.o
    0x08008f28   0x00000064   Code   RO          205    i._ZN14BluetoothEvent7disposeEv  bluetoothevent.o
    0x08008f8c   0x00000018   Code   RO          206    i._ZN14BluetoothEvent8onResultEPKht  bluetoothevent.o
    0x08008fa4   0x00000002   Code   RO          207    i._ZN14BluetoothEvent8onReturnEh  bluetoothevent.o
    0x08008fa6   0x00000002   PAD
    0x08008fa8   0x0000002c   Code   RO         1737    i._ZN14PositionSwitch8instanceEv  fridge.o
    0x08008fd4   0x00000050   Code   RO         1942    i._ZN14PositionSwitch9xGetValueEv  positionswitch.o
    0x08009024   0x00000068   Code   RO         1943    i._ZN14PositionSwitchC1Ev  positionswitch.o
    0x0800908c   0x000001f0   Code   RO          945    i._ZN16StatusUpdateTask3runEv  statusupdatetask.o
    0x0800927c   0x00000028   Code   RO          946    i._ZN16StatusUpdateTaskC1Ev  statusupdatetask.o
    0x080092a4   0x000000e0   Code   RO         1044    i._ZN19MessageDispenseTask3runEv  messagedispensetask.o
    0x08009384   0x00000028   Code   RO         1045    i._ZN19MessageDispenseTaskC1Ev  messagedispensetask.o
    0x080093ac   0x00000044   Code   RO         2304    i._ZN3Led5blinkEv   led.o
    0x080093f0   0x00000044   Code   RO         2305    i._ZN3LedC1Ev       led.o
    0x08009434   0x00000012   Code   RO          909    i._ZN4Task14startThreadFunEPv  task.o
    0x08009446   0x00000010   Code   RO          910    i._ZN4Task4stopEv   task.o
    0x08009456   0x00000002   PAD
    0x08009458   0x00000024   Code   RO          911    i._ZN4Task5startEv  task.o
    0x0800947c   0x0000002c   Code   RO          912    i._ZN4TaskC2EPKcPyj12osPriority_t  task.o
    0x080094a8   0x00000050   Code   RO         2405    i._ZN5ELock5vInitEv  elock.o
    0x080094f8   0x00000002   Code   RO          407    i._ZN5Event14onStatusChangeEhhh  event.o
    0x080094fa   0x00000002   Code   RO          408    i._ZN5Event8onResultEPKht  event.o
    0x080094fc   0x00000002   Code   RO          409    i._ZN5Event8onReturnEh  event.o
    0x080094fe   0x00000002   PAD
    0x08009500   0x00000010   Code   RO         1070    i._ZN5EventC1Ev     messagedispensetask.o
    0x08009510   0x0000007c   Code   RO         1677    i._ZN6Fridge12initMotoGpioEv  fridge.o
    0x0800958c   0x00000038   Code   RO         1678    i._ZN6Fridge14initMotoDriverEv  fridge.o
    0x080095c4   0x00000064   Code   RO         1679    i._ZN6Fridge15initCounterGpioEv  fridge.o
    0x08009628   0x0000003c   Code   RO         1680    i._ZN6Fridge17initCounterDriverEv  fridge.o
    0x08009664   0x000000b4   Code   RO         1681    i._ZN6Fridge5xOpenEtj  fridge.o
    0x08009718   0x00000012   Code   RO         1743    i._ZN6Fridge6isOpenEv  fridge.o
    0x0800972a   0x00000002   PAD
    0x0800972c   0x000000b4   Code   RO         1682    i._ZN6Fridge6xCloseEtj  fridge.o
    0x080097e0   0x00000012   Code   RO         1749    i._ZN6Fridge7isCloseEv  fridge.o
    0x080097f2   0x00000002   PAD
    0x080097f4   0x0000002c   Code   RO         1683    i._ZN6Fridge7vSetDirENS_3DirE  fridge.o
    0x08009820   0x0000002c   Code   RO         1268    i._ZN6Fridge8instanceEv  delivertask.o
    0x0800984c   0x00000034   Code   RO         1684    i._ZN6FridgeC1Ev    fridge.o
    0x08009880   0x00000020   Code   RO          679    i._ZN6SenderC1EPKc  sender.o
    0x080098a0   0x0000003c   Code   RO         1524    i._ZN7Ds18b2010vWriteByteEh  ds18b20.o
    0x080098dc   0x0000004c   Code   RO         1525    i._ZN7Ds18b2012xCheckDeviceEv  ds18b20.o
    0x08009928   0x00000020   Code   RO         1526    i._ZN7Ds18b206vResetEv  ds18b20.o
    0x08009948   0x00000022   Code   RO         1527    i._ZN7Ds18b206vStartEv  ds18b20.o
    0x0800996a   0x00000002   PAD
    0x0800996c   0x00000030   Code   RO         1528    i._ZN7Ds18b208xReadBitEv  ds18b20.o
    0x0800999c   0x00000040   Code   RO         1529    i._ZN7Ds18b209xGetValueEv  ds18b20.o
    0x080099dc   0x00000020   Code   RO         1530    i._ZN7Ds18b209xReadByteEv  ds18b20.o
    0x080099fc   0x0000004c   Code   RO         1531    i._ZN7Ds18b20C1Ev   ds18b20.o
    0x08009a48   0x0000002e   Code   RO         1785    i._ZN7LogUart5writeEPKht  loguart.o
    0x08009a76   0x00000002   PAD
    0x08009a78   0x00000010   Code   RO         1786    i._ZN7LogUart5writeEh  loguart.o
    0x08009a88   0x0000002c   Code   RO          734    i._ZN7LogUart8instanceEv  logevent.o
    0x08009ab4   0x0000014c   Code   RO         1787    i._ZN7LogUartC1Ev   loguart.o
    0x08009c00   0x00000268   Code   RO          772    i._ZN8BootTask3runEv  boottask.o
    0x08009e68   0x00000028   Code   RO          773    i._ZN8BootTaskC1Ev  boottask.o
    0x08009e90   0x0000004c   Code   RO          694    i._ZN8LogEvent14onStatusChangeEhhh  logevent.o
    0x08009edc   0x000000bc   Code   RO          695    i._ZN8LogEvent15onCheckRobotArmEv  logevent.o
    0x08009f98   0x00000078   Code   RO          696    i._ZN8LogEvent7disposeEv  logevent.o
    0x0800a010   0x00000022   Code   RO          697    i._ZN8LogEvent8onReturnEh  logevent.o
    0x0800a032   0x0000002e   Code   RO         1881    i._ZN8MainUart5writeEPKht  mainuart.o
    0x0800a060   0x00000014   Code   RO         1882    i._ZN8MainUart5writeEh  mainuart.o
    0x0800a074   0x0000002c   Code   RO          559    i._ZN8MainUart8instanceEv  mainevent.o
    0x0800a0a0   0x00000104   Code   RO         1883    i._ZN8MainUartC1Ev  mainuart.o
    0x0800a1a4   0x00000044   Code   RO         2533    i._ZN8Protocol5buildEPh  protocol.o
    0x0800a1e8   0x0000000e   Code   RO          261    i._ZN8Protocol7append1Eh  bluetoothevent.o
    0x0800a1f6   0x00000024   Code   RO          571    i._ZN8Protocol7append2Et  mainevent.o
    0x0800a21a   0x00000008   Code   RO          565    i._ZN8ProtocolC1EPh  mainevent.o
    0x0800a222   0x0000000a   Code   RO          553    i._ZN8Receiver3putEPK5Event  mainevent.o
    0x0800a22c   0x0000000a   Code   RO         1076    i._ZN8Receiver4recvEP5Eventj  messagedispensetask.o
    0x0800a236   0x00000036   Code   RO          667    i._ZN8ReceiverC1EPKcPyjj  receiver.o
    0x0800a26c   0x00000038   Code   RO         2140    i._ZN8SysTimer5vInitEv  systimer.o
    0x0800a2a4   0x00000014   Code   RO         2141    i._ZN8SysTimer8vDelayUsEt  systimer.o
    0x0800a2b8   0x000000f0   Code   RO         1381    i._ZN9Bluetooth10initDriverEv  bluetooth.o
    0x0800a3a8   0x0000002e   Code   RO         1382    i._ZN9Bluetooth5writeEPKht  bluetooth.o
    0x0800a3d6   0x00000002   PAD
    0x0800a3d8   0x00000014   Code   RO         1383    i._ZN9Bluetooth5writeEh  bluetooth.o
    0x0800a3ec   0x0000002c   Code   RO          249    i._ZN9Bluetooth8instanceEv  bluetoothevent.o
    0x0800a418   0x00000048   Code   RO         1384    i._ZN9BluetoothC1Ev  bluetooth.o
    0x0800a460   0x00000054   Code   RO          480    i._ZN9MainEvent11onOTANotifyEv  mainevent.o
    0x0800a4b4   0x00000036   Code   RO          482    i._ZN9MainEvent5writeEhh  mainevent.o
    0x0800a4ea   0x00000066   Code   RO          484    i._ZN9MainEvent7disposeEv  mainevent.o
    0x0800a550   0x00000018   Code   RO          485    i._ZN9MainEvent8onResultEPKht  mainevent.o
    0x0800a568   0x0000006e   Code   RO          486    i._ZN9MainEvent9onPackageEv  mainevent.o
    0x0800a5d6   0x00000002   PAD
    0x0800a5d8   0x00000090   Code   RO         2191    i._ZN9PickMotor12initMotoGpioEv  pickmotor.o
    0x0800a668   0x00000048   Code   RO         2192    i._ZN9PickMotor14initMotoDriverEv  pickmotor.o
    0x0800a6b0   0x00000058   Code   RO         2193    i._ZN9PickMotor15initCounterGpioEv  pickmotor.o
    0x0800a708   0x00000030   Code   RO         2194    i._ZN9PickMotor17initCounterDriverEv  pickmotor.o
    0x0800a738   0x0000002e   Code   RO         2195    i._ZN9PickMotor17xGoDownOfAbsoluteEtjj  pickmotor.o
    0x0800a766   0x00000002   PAD
    0x0800a768   0x0000008c   Code   RO         2196    i._ZN9PickMotor25xGoDownAndCheckCompressorEtjj  pickmotor.o
    0x0800a7f4   0x00000012   Code   RO         2269    i._ZN9PickMotor5isTopEv  pickmotor.o
    0x0800a806   0x00000002   PAD
    0x0800a808   0x0000015c   Code   RO         2197    i._ZN9PickMotor5xGoUpEtjj  pickmotor.o
    0x0800a964   0x00000034   Code   RO         2198    i._ZN9PickMotor7vSetDirENS_3DirE  pickmotor.o
    0x0800a998   0x000000a8   Code   RO         2199    i._ZN9PickMotor7xGoDownEtjj  pickmotor.o
    0x0800aa40   0x0000002c   Code   RO         1280    i._ZN9PickMotor8instanceEv  delivertask.o
    0x0800aa6c   0x00000038   Code   RO         2263    i._ZN9PickMotor9isCheckedEv  pickmotor.o
    0x0800aaa4   0x00000048   Code   RO         2200    i._ZN9PickMotorC1Ev  pickmotor.o
    0x0800aaec   0x000000e8   Code   RO         1975    i._ZN9RobotArm111xRotationToEtjt  robotarm1.o
    0x0800abd4   0x000000c8   Code   RO         1976    i._ZN9RobotArm112initMotoGpioEv  robotarm1.o
    0x0800ac9c   0x0000005c   Code   RO         1977    i._ZN9RobotArm114initMotoDriverEv  robotarm1.o
    0x0800acf8   0x00000058   Code   RO         1979    i._ZN9RobotArm115initCounterGpioEv  robotarm1.o
    0x0800ad50   0x00000038   Code   RO         1980    i._ZN9RobotArm117initCounterDriverEv  robotarm1.o
    0x0800ad88   0x00000022   Code   RO         1981    i._ZN9RobotArm120xGetAbsolutePositionEv  robotarm1.o
    0x0800adaa   0x00000002   PAD
    0x0800adac   0x00000028   Code   RO         1982    i._ZN9RobotArm17vSetDirENS_3DirE  robotarm1.o
    0x0800add4   0x0000002c   Code   RO         1256    i._ZN9RobotArm18instanceEv  delivertask.o
    0x0800ae00   0x00000064   Code   RO         1983    i._ZN9RobotArm1C1Ev  robotarm1.o
    0x0800ae64   0x000000e8   Code   RO         2061    i._ZN9RobotArm211xRotationToEtjt  robotarm2.o
    0x0800af4c   0x00000040   Code   RO         2062    i._ZN9RobotArm212initMotoGpioEv  robotarm2.o
    0x0800af8c   0x00000038   Code   RO         2064    i._ZN9RobotArm214vInversedBrakeEv  robotarm2.o
    0x0800afc4   0x00000058   Code   RO         2065    i._ZN9RobotArm215initCounterGpioEv  robotarm2.o
    0x0800b01c   0x00000054   Code   RO         2066    i._ZN9RobotArm217initCounterDriverEv  robotarm2.o
    0x0800b070   0x00000024   Code   RO         2067    i._ZN9RobotArm220xGetAbsolutePositionEv  robotarm2.o
    0x0800b094   0x00000028   Code   RO         2068    i._ZN9RobotArm27vSetDirENS_3DirE  robotarm2.o
    0x0800b0bc   0x0000002c   Code   RO         1262    i._ZN9RobotArm28instanceEv  delivertask.o
    0x0800b0e8   0x0000005c   Code   RO         2069    i._ZN9RobotArm2C1Ev  robotarm2.o
    0x0800b144   0x00000042   Code   RO          410    i._ZNK5Event17isCorrectOfResultEv  event.o
    0x0800b186   0x00000010   Code   RO         1244    i._ZNK5Event4arg2Eh  delivertask.o
    0x0800b196   0x0000001c   Code   RO          411    i._ZNK5Event5checkEv  event.o
    0x0800b1b2   0x0000003a   Code   RO          412    i._ZNK5Event9isCorrectEv  event.o
    0x0800b1ec   0x00000030   Code   RO         3702    i.__ARM_fpclassify  m_wm.l(fpclassify.o)
    0x0800b21c   0x00000010   Code   RO         3251    i.__cxa_guard_acquire  cpprt_w.l(cxa_guard_acquire.o)
    0x0800b22c   0x00000006   Code   RO         3248    i.__cxa_pure_virtual  cpprt_w.l(pure_virt.o)
    0x0800b232   0x00000002   PAD
    0x0800b234   0x00000018   Code   RO         1788    i.__sti___11_LogUart_cpp_f947086d  loguart.o
    0x0800b24c   0x00000018   Code   RO         1884    i.__sti___12_MainUart_cpp_f0dc2c7d  mainuart.o
    0x0800b264   0x00000018   Code   RO         1385    i.__sti___13_Bluetooth_cpp_6b41d81d  bluetooth.o
    0x0800b27c   0x0000000e   Code   RO         3422    i._is_digit         c_w.l(__printf_wp.o)
    0x0800b28a   0x0000001c   Code   RO         2645    i._mutex_acquire    rtx_lib.o
    0x0800b2a6   0x00000006   Code   RO         2646    i._mutex_free       rtx_lib.o
    0x0800b2ac   0x0000001e   Code   RO         2647    i._mutex_initialize  rtx_lib.o
    0x0800b2ca   0x00000018   Code   RO         2648    i._mutex_release    rtx_lib.o
    0x0800b2e2   0x00000004   Code   RO         2649    i._platform_post_stackheap_init  rtx_lib.o
    0x0800b2e6   0x00000002   PAD
    0x0800b2e8   0x00000038   Code   RO           74    i.main              main.o
    0x0800b320   0x00000002   Code   RO         2744    i.osRtxErrorNotify  rtx_config.o
    0x0800b322   0x00000002   Code   RO         2745    i.osRtxIdleThread   rtx_config.o
    0x0800b324   0x00000020   Code   RO         2650    i.os_kernel_is_active  rtx_lib.o
    0x0800b344   0x0000002c   Code   RO         3678    locale$$code        c_w.l(lc_numeric_c.o)
    0x0800b370   0x0000002c   Code   RO         3752    locale$$code        c_w.l(lc_ctype_c.o)
    0x0800b39c   0x0000000a   Code   RO         3572    x$fpl$fpinit        fz_wm.l(fpinit.o)
    0x0800b3a6   0x00000004   Code   RO         3519    x$fpl$printf1       fz_wm.l(printf1.o)
    0x0800b3aa   0x00000000   Code   RO         3701    x$fpl$usenofp       fz_wm.l(usenofp.o)
    0x0800b3aa   0x00000002   PAD
    0x0800b3ac   0x00000024   Data   RO         2660    .constdata          rtx_lib.o
    0x0800b3d0   0x00000024   Data   RO         2661    .constdata          rtx_lib.o
    0x0800b3f4   0x00000018   Data   RO         2662    .constdata          rtx_lib.o
    0x0800b40c   0x00000004   Data   RO         2663    .constdata          rtx_lib.o
    0x0800b410   0x00000008   Data   RO         3381    .constdata          c_w.l(_printf_wctomb.o)
    0x0800b418   0x00000028   Data   RO         3410    .constdata          c_w.l(_printf_hex_int_ll_ptr.o)
    0x0800b440   0x00000011   Data   RO         3430    .constdata          c_w.l(__printf_flags_ss_wp.o)
    0x0800b451   0x00000003   PAD
    0x0800b454   0x00000094   Data   RO         3653    .constdata          c_w.l(bigflt0.o)
    0x0800b4e8   0x0000000c   Data   RO         1237    .constdata__ZTV11DeliverTask  delivertask.o
    0x0800b4f4   0x00000014   Data   RO          248    .constdata__ZTV14BluetoothEvent  bluetoothevent.o
    0x0800b508   0x0000000c   Data   RO          970    .constdata__ZTV16StatusUpdateTask  statusupdatetask.o
    0x0800b514   0x0000000c   Data   RO         1069    .constdata__ZTV19MessageDispenseTask  messagedispensetask.o
    0x0800b520   0x0000000c   Data   RO          938    .constdata__ZTV4Task  task.o
    0x0800b52c   0x00000014   Data   RO          456    .constdata__ZTV5Event  event.o
    0x0800b540   0x0000000c   Data   RO         1829    .constdata__ZTV7LogUart  loguart.o
    0x0800b54c   0x0000000c   Data   RO          797    .constdata__ZTV8BootTask  boottask.o
    0x0800b558   0x00000014   Data   RO          733    .constdata__ZTV8LogEvent  logevent.o
    0x0800b56c   0x0000000c   Data   RO         1925    .constdata__ZTV8MainUart  mainuart.o
    0x0800b578   0x0000000c   Data   RO         1431    .constdata__ZTV9Bluetooth  bluetooth.o
    0x0800b584   0x00000014   Data   RO          540    .constdata__ZTV9MainEvent  mainevent.o
    0x0800b598   0x00000068   Data   RO         2666    .rodata             rtx_lib.o
    0x0800b600   0x0000000b   Data   RO         2828    .rodata.str1.4      RTX_CM4F.lib(rtx_kernel.o)
    0x0800b60b   0x00000001   PAD
    0x0800b60c   0x00000020   Data   RO         3825    Region$$Table       anon$$obj.o
    0x0800b62c   0x0000001c   Data   RO         3677    locale$$data        c_w.l(lc_numeric_c.o)
    0x0800b648   0x00000110   Data   RO         3751    locale$$data        c_w.l(lc_ctype_c.o)
    0x0800b758   0x00000004   Data   RO         1394    .init_array         bluetooth.o
    0x0800b75c   0x00000004   Data   RO         1796    .init_array         loguart.o
    0x0800b760   0x00000004   Data   RO         1892    .init_array         mainuart.o
    0x0800b764   0x00000000   Data   RO         3243    .init_array         c_w.l(init_aeabi.o)


    Execution Region RW_IRAM1 (Base: 0x20000000, Size: 0x0000a378, Max: 0x00020000, ABSOLUTE, COMPRESSED[0x00000040])

    Base Addr    Size         Type   Attr      Idx    E Section Name        Object

    0x20000000   0x00001000   Data   RW         2651    .bss.os             rtx_lib.o
    0x20001000   0x00000040   Data   RW         2652    .bss.os             rtx_lib.o
    0x20001040   0x00000034   Data   RW         2654    .bss.os.msgqueue.cb  rtx_lib.o
    0x20001074   0x00000050   Data   RW         2655    .bss.os.msgqueue.mem  rtx_lib.o
    0x200010c4   0x00000044   Data   RW         2656    .bss.os.thread.cb   rtx_lib.o
    0x20001108   0x00000044   Data   RW         2657    .bss.os.thread.cb   rtx_lib.o
    0x2000114c   0x00000004   PAD
    0x20001150   0x00000100   Data   RW         2658    .bss.os.thread.stack  rtx_lib.o
    0x20001250   0x00000100   Data   RW         2659    .bss.os.thread.stack  rtx_lib.o
    0x20001350   0x00000014   Data   RW            7    .data               system_stm32f4xx.o
    0x20001364   0x00000004   Data   RW         1393    .data               bluetooth.o
    0x20001368   0x00000004   Data   RW         1795    .data               loguart.o
    0x2000136c   0x00000004   Data   RW         1891    .data               mainuart.o
    0x20001370   0x00000001   Data   RW         2665    .data               rtx_lib.o
    0x20001371   0x00000007   PAD
    0x20001378   0x000000a8   Data   RW         2829    .data.os            RTX_CM4F.lib(rtx_kernel.o)
    0x20001420   0x00000005   Data   RW          801    .data__ZZN10Compressor8instanceEvE3com  boottask.o
    0x20001425   0x00000003   PAD
    0x20001428   0x00000004   Data   RW          587    .data__ZZN10OTAManager8instanceEvE1t  mainevent.o
    0x2000142c   0x00000004   Data   RW          276    .data__ZZN11DeliverTask8instanceEvE8INSTANCE  bluetoothevent.o
    0x20001430   0x00000004   Data   RW          268    .data__ZZN11FlashMemory8instanceEvE1m  bluetoothevent.o
    0x20001434   0x00000005   Data   RW          812    .data__ZZN11MotorDriver8instanceEvE6driver  boottask.o
    0x20001439   0x00000003   PAD
    0x2000143c   0x00000004   Data   RW          799    .data__ZZN14PositionSwitch8instanceEvE8instance  boottask.o
    0x20001440   0x00000004   Data   RW          809    .data__ZZN16StatusUpdateTask8instanceEvE4task  boottask.o
    0x20001444   0x00000004   Data   RW          807    .data__ZZN19MessageDispenseTask8instanceEvE8INSTANCE  boottask.o
    0x20001448   0x00000005   Data   RW          811    .data__ZZN3Led8instanceEvE1l  boottask.o
    0x2000144d   0x00000003   PAD
    0x20001450   0x00000004   Data   RW          803    .data__ZZN6Fridge8instanceEvE6fridge  boottask.o
    0x20001454   0x00000005   Data   RW          802    .data__ZZN7Ds18b208instanceEvE6device  boottask.o
    0x20001459   0x00000003   PAD
    0x2000145c   0x00000004   Data   RW          748    .data__ZZN7LogUart8instanceEvE4uart  logevent.o
    0x20001460   0x00000004   Data   RW           93    .data__ZZN8BootTask8instanceEvE4task  main.o
    0x20001464   0x00000004   Data   RW          585    .data__ZZN8MainUart8instanceEvE4uart  mainevent.o
    0x20001468   0x00000004   Data   RW          274    .data__ZZN9Bluetooth8instanceEvE3ble  bluetoothevent.o
    0x2000146c   0x00000004   Data   RW          805    .data__ZZN9PickMotor8instanceEvE9pickMotor  boottask.o
    0x20001470   0x00000004   Data   RW          270    .data__ZZN9RobotArm18instanceEvE1r  bluetoothevent.o
    0x20001474   0x00000004   Data   RW          272    .data__ZZN9RobotArm28instanceEvE8instance  bluetoothevent.o
    0x20001478   0x000002b0   Zero   RW         1392    .bss                bluetooth.o
    0x20001728   0x000002b0   Zero   RW         1794    .bss                loguart.o
    0x200019d8   0x00000370   Zero   RW         1890    .bss                mainuart.o
    0x20001d48   0x00000060   Zero   RW         3709    .bss                c_w.l(libspace.o)
    0x20001da8   0x00001078   Zero   RW          588    .bss__ZZN10OTAManager8instanceEvE1t  mainevent.o
    0x20002e20   0x00000ae0   Zero   RW          277    .bss__ZZN11DeliverTask8instanceEvE8INSTANCE  bluetoothevent.o
    0x20003900   0x00001000   Zero   RW          269    .bss__ZZN11FlashMemory8instanceEvE1m  bluetoothevent.o
    0x20004900   0x00000038   Zero   RW          800    .bss__ZZN14PositionSwitch8instanceEvE8instance  boottask.o
    0x20004938   0x00000288   Zero   RW          810    .bss__ZZN16StatusUpdateTask8instanceEvE4task  boottask.o
    0x20004bc0   0x00000480   Zero   RW          808    .bss__ZZN19MessageDispenseTask8instanceEvE8INSTANCE  boottask.o
    0x20005040   0x00000058   Zero   RW          804    .bss__ZZN6Fridge8instanceEvE6fridge  boottask.o
    0x20005098   0x00000f38   Zero   RW          749    .bss__ZZN7LogUart8instanceEvE4uart  logevent.o
    0x20005fd0   0x00000280   Zero   RW           94    .bss__ZZN8BootTask8instanceEvE4task  main.o
    0x20006250   0x00000ae8   Zero   RW          586    .bss__ZZN8MainUart8instanceEvE4uart  mainevent.o
    0x20006d38   0x00003158   Zero   RW          275    .bss__ZZN9Bluetooth8instanceEvE3ble  bluetoothevent.o
    0x20009e90   0x00000038   Zero   RW          806    .bss__ZZN9PickMotor8instanceEvE9pickMotor  boottask.o
    0x20009ec8   0x00000058   Zero   RW          271    .bss__ZZN9RobotArm18instanceEvE1r  bluetoothevent.o
    0x20009f20   0x00000058   Zero   RW          273    .bss__ZZN9RobotArm28instanceEvE8instance  bluetoothevent.o
    0x20009f78   0x00000000   Zero   RW           65    HEAP                startup_stm32f40_41xxx.o
    0x20009f78   0x00000400   Zero   RW           64    STACK               startup_stm32f40_41xxx.o


==============================================================================

Image component sizes


      Code (inc. data)   RO Data    RW Data    ZI Data      Debug   Object Name

       100          0          0          0          0       4584   baseoutput.o
       118          0          0          0          0       5220   baseprotocol.o
       570         84         16          4        688      38339   bluetooth.o
       304         46         20         20      19688     263824   bluetoothevent.o
       656        144         12         40       2000      19784   boottask.o
        80          8          0          0          0       2544   compressor.o
      2460        124         12          0          0      28929   delivertask.o
       422         26          0          0          0       5124   ds18b20.o
        80          8          0          0          0        484   elock.o
       158          0         20          0          0       6712   event.o
       648         50          0          0          0       9268   flashmemory.o
       876        122          0          0          0      10224   fridge.o
       136         14          0          0          0       1308   led.o
       484         56         20          4       3896       6632   logevent.o
       586         82         16          4        688      37934   loguart.o
        56          8          0          4        640     251203   main.o
       700         54         20          8       7008      19960   mainevent.o
       518         84         16          4        880       6232   mainuart.o
       290         56         12          0          0      11836   messagedispensetask.o
       504         56          0          0          0       3855   motordriver.o
       496          8          0          0          0      31398   otamanager.o
      1252        164          0          0          0      13344   pickmotor.o
       102          0          0          0          0       3016   pidcontrol.o
       184         30          0          0          0       2188   positionswitch.o
        68          0          0          0          0       4836   protocol.o
        54          0          0          0          0       1628   receiver.o
       842         84          0          0          0       8764   robotarm1.o
       692         80          0          0          0       7396   robotarm2.o
         4          0          0          0          0        961   rtx_config.o
       124          4        204       4941          0      15188   rtx_lib.o
        32          0          0          0          0        548   sender.o
        60         22        392          0       1024        820   startup_stm32f40_41xxx.o
       630         50         12          0          0       8796   statusupdatetask.o
       272         38          0         20          0       6265   system_stm32f4xx.o
        76         14          0          0          0       2140   systimer.o
       114         12         12          0          0       3032   task.o

    ----------------------------------------------------------------------
     14786       1528        816       5072      36512     844316   Object Totals
         0          0         32          0          0          0   (incl. Generated)
        38          0          0         23          0          0   (incl. Padding)

    ----------------------------------------------------------------------

      Code (inc. data)   RO Data    RW Data    ZI Data      Debug   Library Member Name

       184         12          0          0          0        528   irq_cm4f.o
        56          0          0          0          0       2892   rtx_delay.o
       784          0         11        168          0      17856   rtx_kernel.o
       246          0          0          0          0       1937   rtx_memory.o
       246          0          0          0          0      17021   rtx_mempool.o
      1866          0          0          0          0      18585   rtx_msgqueue.o
       936          0          0          0          0       8779   rtx_mutex.o
       492          8          0          0          0       8158   rtx_system.o
      2790          0          0          0          0      38965   rtx_thread.o
       170          0          0          0          0       8770   rtx_timer.o
        58          0          0          0          0          0   __dczerorl.o
         8          0          0          0          0         68   __main.o
       392          4         17          0          0         92   __printf_flags_ss_wp.o
        14          0          0          0          0         68   __printf_wp.o
         0          0          0          0          0          0   __rtentry.o
        20          0          0          0          0          0   __rtentry2.o
         6          0          0          0          0          0   __rtentry4.o
        52          8          0          0          0          0   __scatter.o
        28          0          0          0          0          0   __scatter_zi.o
         6          0          0          0          0          0   _printf_a.o
         6          0          0          0          0          0   _printf_c.o
        44          0          0          0          0        108   _printf_char.o
        48          6          0          0          0         96   _printf_char_common.o
        40          0          0          0          0         68   _printf_charcount.o
         6          0          0          0          0          0   _printf_d.o
       120         16          0          0          0         92   _printf_dec.o
         6          0          0          0          0          0   _printf_e.o
         6          0          0          0          0          0   _printf_f.o
      1050          0          0          0          0        216   _printf_fp_dec.o
       128         16          0          0          0         84   _printf_fp_infnan.o
         6          0          0          0          0          0   _printf_g.o
       148          4         40          0          0        160   _printf_hex_int_ll_ptr.o
         6          0          0          0          0          0   _printf_i.o
       178          0          0          0          0         88   _printf_intcommon.o
        10          0          0          0          0          0   _printf_l.o
         6          0          0          0          0          0   _printf_lc.o
        10          0          0          0          0          0   _printf_ll.o
         6          0          0          0          0          0   _printf_lld.o
         6          0          0          0          0          0   _printf_lli.o
         6          0          0          0          0          0   _printf_llo.o
         6          0          0          0          0          0   _printf_llu.o
         6          0          0          0          0          0   _printf_llx.o
       124         16          0          0          0         92   _printf_longlong_dec.o
         6          0          0          0          0          0   _printf_ls.o
         6          0          0          0          0          0   _printf_n.o
         6          0          0          0          0          0   _printf_o.o
       112         10          0          0          0        124   _printf_oct_int_ll.o
         6          0          0          0          0          0   _printf_p.o
        78          0          0          0          0        108   _printf_pad.o
         0          0          0          0          0          0   _printf_percent.o
         4          0          0          0          0          0   _printf_percent_end.o
         6          0          0          0          0          0   _printf_s.o
        82          0          0          0          0         80   _printf_str.o
        36          0          0          0          0         84   _printf_truncate.o
         6          0          0          0          0          0   _printf_u.o
        44          0          0          0          0        108   _printf_wchar.o
       188          6          8          0          0         92   _printf_wctomb.o
         6          0          0          0          0          0   _printf_x.o
        10          0          0          0          0         68   _sputc.o
        64          0          0          0          0         92   _wcrtomb.o
        16          0          0          0          0         68   aeabi_memset4.o
       220          4        148          0          0         96   bigflt0.o
      1910        128          0          0          0        672   btod.o
        36          4          0          0          0         76   c89vsprintf.o
        10          0          0          0          0         68   defsig_exit.o
        50          0          0          0          0         88   defsig_general.o
        48         34          0          0          0         76   defsig_pvfn_inner.o
        14          0          0          0          0         80   defsig_pvfn_outer.o
        18          0          0          0          0         80   exit.o
         6          0          0          0          0        152   heapauxi.o
         0          0          0          0          0          0   indicate_semi.o
        36         10          0          0          0         80   init_aeabi.o
        44         10        272          0          0         76   lc_ctype_c.o
        44         10         28          0          0         76   lc_numeric_c.o
         2          0          0          0          0          0   libinit.o
        38          0          0          0          0          0   libinit2.o
         2          0          0          0          0          0   libshutdown.o
         2          0          0          0          0          0   libshutdown2.o
         8          4          0          0         96         68   libspace.o
       138          0          0          0          0         80   lludiv10.o
        16          4          0          0          0         76   rt_ctype_table.o
        10          0          0          0          0         76   rt_locale_twolibspace.o
        68          0          0          0          0         68   rt_memclr.o
        78          0          0          0          0         80   rt_memclr_w.o
       138          0          0          0          0         68   rt_memcpy_v6.o
       100          0          0          0          0         80   rt_memcpy_w.o
         2          0          0          0          0          0   rtexit.o
        10          0          0          0          0          0   rtexit2.o
       128          0          0          0          0         68   strcmpv7m.o
        12          4          0          0          0         68   sys_exit.o
        74          0          0          0          0         80   sys_stackheap_outer.o
        14          0          0          0          0         76   sys_wrch.o
         2          0          0          0          0         68   use_no_semi.o
        16          0          0          0          0         68   cxa_guard_acquire.o
         6          0          0          0          0         68   pure_virt.o
        10          0          0          0          0        116   fpinit.o
         4          0          0          0          0        116   printf1.o
         0          0          0          0          0          0   usenofp.o
        48          0          0          0          0        124   fpclassify.o

    ----------------------------------------------------------------------
     14434        318        528        168         96     128615   Library Totals
        70          0          4          0          0          0   (incl. Padding)

    ----------------------------------------------------------------------

      Code (inc. data)   RO Data    RW Data    ZI Data      Debug   Library Name

      7770         20         11        168          0     123491   RTX_CM4F.lib
      6510        298        513          0         96       4632   c_w.l
        22          0          0          0          0        136   cpprt_w.l
        14          0          0          0          0        232   fz_wm.l
        48          0          0          0          0        124   m_wm.l

    ----------------------------------------------------------------------
     14434        318        528        168         96     128615   Library Totals

    ----------------------------------------------------------------------

==============================================================================


      Code (inc. data)   RO Data    RW Data    ZI Data      Debug   

     29220       1846       1344       5240      36608     952699   Grand Totals
     29220       1846       1344         64      36608     952699   ELF Image Totals (compressed)
     29220       1846       1344         64          0          0   ROM Totals

==============================================================================

    Total RO  Size (Code + RO Data)                30564 (  29.85kB)
    Total RW  Size (RW Data + ZI Data)             41848 (  40.87kB)
    Total ROM Size (Code + RO Data + RW Data)      30628 (  29.91kB)

==============================================================================

